ARM GAS  C:\Users\DARSTE~1\AppData\Local\Temp\cc06ENfS.s 			page 1


   1              		.cpu cortex-m3
   2              		.arch armv7-m
   3              		.fpu softvfp
   4              		.eabi_attribute 20, 1
   5              		.eabi_attribute 21, 1
   6              		.eabi_attribute 23, 3
   7              		.eabi_attribute 24, 1
   8              		.eabi_attribute 25, 1
   9              		.eabi_attribute 26, 1
  10              		.eabi_attribute 30, 1
  11              		.eabi_attribute 34, 1
  12              		.eabi_attribute 18, 4
  13              		.file	"app.cpp"
  14              		.text
  15              	.Ltext0:
  16              		.cfi_sections	.debug_frame
  17              		.file 1 "App/app.cpp"
  18              		.section	.text._Z41__static_initialization_and_destruction_0v,"ax",%progbits
  19              		.align	1
  20              		.syntax unified
  21              		.thumb
  22              		.thumb_func
  24              	_Z41__static_initialization_and_destruction_0v:
  25              		.fnstart
  26              	.LFB70:
   1:App/app.cpp   **** #include "app.h"
   2:App/app.cpp   **** #include "stm32Abstract.h"
   3:App/app.cpp   **** #include "ws2812b.h"
   4:App/app.cpp   **** #include <stdio.h>
   5:App/app.cpp   **** 
   6:App/app.cpp   **** 
   7:App/app.cpp   **** extern TIM_HandleTypeDef htim1;
   8:App/app.cpp   **** extern DMA_HandleTypeDef hdma_tim1_ch1;
   9:App/app.cpp   **** extern UART_HandleTypeDef huart1;
  10:App/app.cpp   **** #ifdef __GNUC__
  11:App/app.cpp   **** #define PUTCHAR_PROTOTYPE int __io_putchar(int ch)
  12:App/app.cpp   **** #else
  13:App/app.cpp   **** #define PUTCHAR_PROTOTYPE int fputc(int ch, FILE *f)
  14:App/app.cpp   **** #endif
  15:App/app.cpp   **** PUTCHAR_PROTOTYPE
  16:App/app.cpp   **** {
  17:App/app.cpp   ****     // -------------- Change huart_x to your appropriate Hardware UART/USART
  18:App/app.cpp   ****     HAL_UART_Transmit(&huart1, (uint8_t *)&ch, 1, HAL_MAX_DELAY);
  19:App/app.cpp   ****     return ch;
  20:App/app.cpp   **** }
  21:App/app.cpp   **** 
  22:App/app.cpp   **** WS2812B led = WS2812B(&htim1, TIM_CHANNEL_1, 4);
  23:App/app.cpp   **** 
  24:App/app.cpp   **** 
  25:App/app.cpp   **** /*
  26:App/app.cpp   **** =====================================================================
  27:App/app.cpp   ****     SETUP
  28:App/app.cpp   **** =====================================================================
  29:App/app.cpp   **** */
  30:App/app.cpp   **** void setup()
  31:App/app.cpp   **** {
  32:App/app.cpp   ****     HAL_Delay(1000);
ARM GAS  C:\Users\DARSTE~1\AppData\Local\Temp\cc06ENfS.s 			page 2


  33:App/app.cpp   **** 
  34:App/app.cpp   ****     led.init();
  35:App/app.cpp   **** 
  36:App/app.cpp   ****     led.solidColor(0x00FFFF, 0, 1);
  37:App/app.cpp   ****     led.solidColor(0xFF00FF, 2, 3);
  38:App/app.cpp   ****     led.render();
  39:App/app.cpp   **** 
  40:App/app.cpp   ****     HAL_Delay(1000);
  41:App/app.cpp   ****     led.solidColor(0x00FF00, 1, 2);
  42:App/app.cpp   ****     led.render();
  43:App/app.cpp   **** }
  44:App/app.cpp   **** 
  45:App/app.cpp   **** 
  46:App/app.cpp   **** /*
  47:App/app.cpp   **** =====================================================================
  48:App/app.cpp   ****     MAIN LOOP
  49:App/app.cpp   **** =====================================================================
  50:App/app.cpp   **** */
  51:App/app.cpp   **** void loop()
  52:App/app.cpp   **** {
  53:App/app.cpp   ****     // led.send();
  54:App/app.cpp   **** }
  55:App/app.cpp   **** 
  56:App/app.cpp   **** 
  57:App/app.cpp   **** /*
  58:App/app.cpp   **** =====================================================================
  59:App/app.cpp   ****     CALLBACKS
  60:App/app.cpp   **** =====================================================================
  61:App/app.cpp   **** */
  62:App/app.cpp   **** void HAL_TIM_PWM_PulseFinishedCallback(TIM_HandleTypeDef *htim)
  63:App/app.cpp   **** {
  64:App/app.cpp   ****     HAL_TIM_PWM_Stop_DMA(&htim1, TIM_CHANNEL_1);
  65:App/app.cpp   **** }...
  27              		.loc 1 65 1 view -0
  28              		.cfi_startproc
  29              		@ args = 0, pretend = 0, frame = 0
  30              		@ frame_needed = 0, uses_anonymous_args = 0
  31 0000 08B5     		push	{r3, lr}
  32              	.LCFI0:
  33              		.cfi_def_cfa_offset 8
  34              		.cfi_offset 3, -8
  35              		.cfi_offset 14, -4
  22:App/app.cpp   **** WS2812B led = WS2812B(&htim1, TIM_CHANNEL_1, 4);
  36              		.loc 1 22 47 is_stmt 0 view .LVU1
  37 0002 0423     		movs	r3, #4
  38 0004 0022     		movs	r2, #0
  39 0006 0249     		ldr	r1, .L3
  40 0008 0248     		ldr	r0, .L3+4
  41 000a FFF7FEFF 		bl	_ZN7WS2812BC1EP17TIM_HandleTypeDefmt
  42              	.LVL0:
  43              		.loc 1 65 1 view .LVU2
  44 000e 08BD     		pop	{r3, pc}
  45              	.L4:
  46              		.align	2
  47              	.L3:
  48 0010 00000000 		.word	htim1
  49 0014 00000000 		.word	led
ARM GAS  C:\Users\DARSTE~1\AppData\Local\Temp\cc06ENfS.s 			page 3


  50              		.cfi_endproc
  51              	.LFE70:
  52              		.cantunwind
  53              		.fnend
  55              		.section	.text._Z12__io_putchari,"ax",%progbits
  56              		.align	1
  57              		.global	_Z12__io_putchari
  58              		.syntax unified
  59              		.thumb
  60              		.thumb_func
  62              	_Z12__io_putchari:
  63              		.fnstart
  64              	.LVL1:
  65              	.LFB66:
  16:App/app.cpp   **** {
  66              		.loc 1 16 1 is_stmt 1 view -0
  67              		.cfi_startproc
  68              		@ args = 0, pretend = 0, frame = 8
  69              		@ frame_needed = 0, uses_anonymous_args = 0
  16:App/app.cpp   **** {
  70              		.loc 1 16 1 is_stmt 0 view .LVU4
  71 0000 00B5     		push	{lr}
  72              		.save {lr}
  73              	.LCFI1:
  74              		.cfi_def_cfa_offset 4
  75              		.cfi_offset 14, -4
  76              		.pad #12
  77 0002 83B0     		sub	sp, sp, #12
  78              	.LCFI2:
  79              		.cfi_def_cfa_offset 16
  80 0004 0190     		str	r0, [sp, #4]
  18:App/app.cpp   ****     HAL_UART_Transmit(&huart1, (uint8_t *)&ch, 1, HAL_MAX_DELAY);
  81              		.loc 1 18 5 is_stmt 1 view .LVU5
  18:App/app.cpp   ****     HAL_UART_Transmit(&huart1, (uint8_t *)&ch, 1, HAL_MAX_DELAY);
  82              		.loc 1 18 22 is_stmt 0 view .LVU6
  83 0006 4FF0FF33 		mov	r3, #-1
  84 000a 0122     		movs	r2, #1
  85 000c 01A9     		add	r1, sp, #4
  86 000e 0348     		ldr	r0, .L7
  87              	.LVL2:
  18:App/app.cpp   ****     HAL_UART_Transmit(&huart1, (uint8_t *)&ch, 1, HAL_MAX_DELAY);
  88              		.loc 1 18 22 view .LVU7
  89 0010 FFF7FEFF 		bl	HAL_UART_Transmit
  90              	.LVL3:
  19:App/app.cpp   ****     return ch;
  91              		.loc 1 19 5 is_stmt 1 view .LVU8
  20:App/app.cpp   **** }
  92              		.loc 1 20 1 is_stmt 0 view .LVU9
  93 0014 0198     		ldr	r0, [sp, #4]
  94 0016 03B0     		add	sp, sp, #12
  95              	.LCFI3:
  96              		.cfi_def_cfa_offset 4
  97              		@ sp needed
  98 0018 5DF804FB 		ldr	pc, [sp], #4
  99              	.L8:
 100              		.align	2
 101              	.L7:
ARM GAS  C:\Users\DARSTE~1\AppData\Local\Temp\cc06ENfS.s 			page 4


 102 001c 00000000 		.word	huart1
 103              		.cfi_endproc
 104              	.LFE66:
 105              		.fnend
 107              		.section	.text.setup,"ax",%progbits
 108              		.align	1
 109              		.global	setup
 110              		.syntax unified
 111              		.thumb
 112              		.thumb_func
 114              	setup:
 115              		.fnstart
 116              	.LFB67:
  31:App/app.cpp   **** {
 117              		.loc 1 31 1 is_stmt 1 view -0
 118              		.cfi_startproc
 119              		@ args = 0, pretend = 0, frame = 0
 120              		@ frame_needed = 0, uses_anonymous_args = 0
 121 0000 10B5     		push	{r4, lr}
 122              		.save {r4, lr}
 123              	.LCFI4:
 124              		.cfi_def_cfa_offset 8
 125              		.cfi_offset 4, -8
 126              		.cfi_offset 14, -4
  32:App/app.cpp   ****     HAL_Delay(1000);
 127              		.loc 1 32 5 view .LVU11
  32:App/app.cpp   ****     HAL_Delay(1000);
 128              		.loc 1 32 14 is_stmt 0 view .LVU12
 129 0002 4FF47A70 		mov	r0, #1000
 130 0006 FFF7FEFF 		bl	HAL_Delay
 131              	.LVL4:
  34:App/app.cpp   ****     led.init();
 132              		.loc 1 34 5 is_stmt 1 view .LVU13
  34:App/app.cpp   ****     led.init();
 133              		.loc 1 34 13 is_stmt 0 view .LVU14
 134 000a 124C     		ldr	r4, .L11
 135 000c 0221     		movs	r1, #2
 136 000e 2046     		mov	r0, r4
 137 0010 FFF7FEFF 		bl	_ZN7WS2812B4initEh
 138              	.LVL5:
  36:App/app.cpp   ****     led.solidColor(0x00FFFF, 0, 1);
 139              		.loc 1 36 5 is_stmt 1 view .LVU15
  36:App/app.cpp   ****     led.solidColor(0x00FFFF, 0, 1);
 140              		.loc 1 36 19 is_stmt 0 view .LVU16
 141 0014 0123     		movs	r3, #1
 142 0016 0022     		movs	r2, #0
 143 0018 4FF6FF71 		movw	r1, #65535
 144 001c 2046     		mov	r0, r4
 145 001e FFF7FEFF 		bl	_ZN7WS2812B10solidColorEmtt
 146              	.LVL6:
  37:App/app.cpp   ****     led.solidColor(0xFF00FF, 2, 3);
 147              		.loc 1 37 5 is_stmt 1 view .LVU17
  37:App/app.cpp   ****     led.solidColor(0xFF00FF, 2, 3);
 148              		.loc 1 37 19 is_stmt 0 view .LVU18
 149 0022 0323     		movs	r3, #3
 150 0024 0222     		movs	r2, #2
 151 0026 4FF0FF11 		mov	r1, #16711935
ARM GAS  C:\Users\DARSTE~1\AppData\Local\Temp\cc06ENfS.s 			page 5


 152 002a 2046     		mov	r0, r4
 153 002c FFF7FEFF 		bl	_ZN7WS2812B10solidColorEmtt
 154              	.LVL7:
  38:App/app.cpp   ****     led.render();
 155              		.loc 1 38 5 is_stmt 1 view .LVU19
  38:App/app.cpp   ****     led.render();
 156              		.loc 1 38 15 is_stmt 0 view .LVU20
 157 0030 2046     		mov	r0, r4
 158 0032 FFF7FEFF 		bl	_ZN7WS2812B6renderEv
 159              	.LVL8:
  40:App/app.cpp   ****     HAL_Delay(1000);
 160              		.loc 1 40 5 is_stmt 1 view .LVU21
  40:App/app.cpp   ****     HAL_Delay(1000);
 161              		.loc 1 40 14 is_stmt 0 view .LVU22
 162 0036 4FF47A70 		mov	r0, #1000
 163 003a FFF7FEFF 		bl	HAL_Delay
 164              	.LVL9:
  41:App/app.cpp   ****     led.solidColor(0x00FF00, 1, 2);
 165              		.loc 1 41 5 is_stmt 1 view .LVU23
  41:App/app.cpp   ****     led.solidColor(0x00FF00, 1, 2);
 166              		.loc 1 41 19 is_stmt 0 view .LVU24
 167 003e 0223     		movs	r3, #2
 168 0040 0122     		movs	r2, #1
 169 0042 4FF47F41 		mov	r1, #65280
 170 0046 2046     		mov	r0, r4
 171 0048 FFF7FEFF 		bl	_ZN7WS2812B10solidColorEmtt
 172              	.LVL10:
  42:App/app.cpp   ****     led.render();
 173              		.loc 1 42 5 is_stmt 1 view .LVU25
  42:App/app.cpp   ****     led.render();
 174              		.loc 1 42 15 is_stmt 0 view .LVU26
 175 004c 2046     		mov	r0, r4
 176 004e FFF7FEFF 		bl	_ZN7WS2812B6renderEv
 177              	.LVL11:
  43:App/app.cpp   **** }
 178              		.loc 1 43 1 view .LVU27
 179 0052 10BD     		pop	{r4, pc}
 180              	.L12:
 181              		.align	2
 182              	.L11:
 183 0054 00000000 		.word	led
 184              		.cfi_endproc
 185              	.LFE67:
 186              		.fnend
 188              		.section	.text.loop,"ax",%progbits
 189              		.align	1
 190              		.global	loop
 191              		.syntax unified
 192              		.thumb
 193              		.thumb_func
 195              	loop:
 196              		.fnstart
 197              	.LFB68:
  52:App/app.cpp   **** {
 198              		.loc 1 52 1 is_stmt 1 view -0
 199              		.cfi_startproc
 200              		@ args = 0, pretend = 0, frame = 0
ARM GAS  C:\Users\DARSTE~1\AppData\Local\Temp\cc06ENfS.s 			page 6


 201              		@ frame_needed = 0, uses_anonymous_args = 0
 202              		@ link register save eliminated.
  54:App/app.cpp   **** }
 203              		.loc 1 54 1 is_stmt 0 view .LVU29
 204 0000 7047     		bx	lr
 205              		.cfi_endproc
 206              	.LFE68:
 207              		.cantunwind
 208              		.fnend
 210              		.section	.text.HAL_TIM_PWM_PulseFinishedCallback,"ax",%progbits
 211              		.align	1
 212              		.global	HAL_TIM_PWM_PulseFinishedCallback
 213              		.syntax unified
 214              		.thumb
 215              		.thumb_func
 217              	HAL_TIM_PWM_PulseFinishedCallback:
 218              		.fnstart
 219              	.LVL12:
 220              	.LFB69:
  63:App/app.cpp   **** {
 221              		.loc 1 63 1 is_stmt 1 view -0
 222              		.cfi_startproc
 223              		@ args = 0, pretend = 0, frame = 0
 224              		@ frame_needed = 0, uses_anonymous_args = 0
  63:App/app.cpp   **** {
 225              		.loc 1 63 1 is_stmt 0 view .LVU31
 226 0000 08B5     		push	{r3, lr}
 227              		.save {r3, lr}
 228              	.LCFI5:
 229              		.cfi_def_cfa_offset 8
 230              		.cfi_offset 3, -8
 231              		.cfi_offset 14, -4
  64:App/app.cpp   ****     HAL_TIM_PWM_Stop_DMA(&htim1, TIM_CHANNEL_1);
 232              		.loc 1 64 5 is_stmt 1 view .LVU32
  64:App/app.cpp   ****     HAL_TIM_PWM_Stop_DMA(&htim1, TIM_CHANNEL_1);
 233              		.loc 1 64 25 is_stmt 0 view .LVU33
 234 0002 0021     		movs	r1, #0
 235 0004 0148     		ldr	r0, .L16
 236              	.LVL13:
  64:App/app.cpp   ****     HAL_TIM_PWM_Stop_DMA(&htim1, TIM_CHANNEL_1);
 237              		.loc 1 64 25 view .LVU34
 238 0006 FFF7FEFF 		bl	HAL_TIM_PWM_Stop_DMA
 239              	.LVL14:
 240              		.loc 1 65 1 view .LVU35
 241 000a 08BD     		pop	{r3, pc}
 242              	.L17:
 243              		.align	2
 244              	.L16:
 245 000c 00000000 		.word	htim1
 246              		.cfi_endproc
 247              	.LFE69:
 248              		.fnend
 250              		.section	.text._GLOBAL__sub_I__Z12__io_putchari,"ax",%progbits
 251              		.align	1
 252              		.syntax unified
 253              		.thumb
 254              		.thumb_func
ARM GAS  C:\Users\DARSTE~1\AppData\Local\Temp\cc06ENfS.s 			page 7


 256              	_GLOBAL__sub_I__Z12__io_putchari:
 257              		.fnstart
 258              	.LFB71:
 259              		.loc 1 65 1 is_stmt 1 view -0
 260              		.cfi_startproc
 261              		@ args = 0, pretend = 0, frame = 0
 262              		@ frame_needed = 0, uses_anonymous_args = 0
 263 0000 08B5     		push	{r3, lr}
 264              	.LCFI6:
 265              		.cfi_def_cfa_offset 8
 266              		.cfi_offset 3, -8
 267              		.cfi_offset 14, -4
 268              		.loc 1 65 1 is_stmt 0 view .LVU37
 269 0002 FFF7FEFF 		bl	_Z41__static_initialization_and_destruction_0v
 270              	.LVL15:
 271 0006 08BD     		pop	{r3, pc}
 272              		.cfi_endproc
 273              	.LFE71:
 274              		.cantunwind
 275              		.fnend
 277              		.section	.init_array,"aw",%init_array
 278              		.align	2
 279 0000 00000000 		.word	_GLOBAL__sub_I__Z12__io_putchari(target1)
 280              		.global	led
 281              		.section	.bss.led,"aw",%nobits
 282              		.align	2
 285              	led:
 286 0000 00000000 		.space	32
 286      00000000 
 286      00000000 
 286      00000000 
 286      00000000 
 287              		.text
 288              	.Letext0:
 289              		.file 2 "C:/msys64/mingw64/arm-none-eabi/include/machine/_default_types.h"
 290              		.file 3 "C:/msys64/mingw64/arm-none-eabi/include/sys/_stdint.h"
 291              		.file 4 "Drivers/CMSIS/Device/ST/STM32F1xx/Include/stm32f103x6.h"
 292              		.file 5 "Drivers/CMSIS/Device/ST/STM32F1xx/Include/stm32f1xx.h"
 293              		.file 6 "Drivers/STM32F1xx_HAL_Driver/Inc/stm32f1xx_hal_def.h"
 294              		.file 7 "Drivers/STM32F1xx_HAL_Driver/Inc/stm32f1xx_hal_dma.h"
 295              		.file 8 "Drivers/STM32F1xx_HAL_Driver/Inc/stm32f1xx_hal_tim.h"
 296              		.file 9 "Drivers/STM32F1xx_HAL_Driver/Inc/stm32f1xx_hal_uart.h"
 297              		.file 10 "Drivers/STM32F1xx_HAL_Driver/Inc/stm32f1xx_hal.h"
 298              		.file 11 "App/WS2812B/ws2812b.h"
ARM GAS  C:\Users\DARSTE~1\AppData\Local\Temp\cc06ENfS.s 			page 8


DEFINED SYMBOLS
                            *ABS*:00000000 app.cpp
C:\Users\DARSTE~1\AppData\Local\Temp\cc06ENfS.s:19     .text._Z41__static_initialization_and_destruction_0v:00000000 $t
C:\Users\DARSTE~1\AppData\Local\Temp\cc06ENfS.s:24     .text._Z41__static_initialization_and_destruction_0v:00000000 _Z41__static_initialization_and_destruction_0v
C:\Users\DARSTE~1\AppData\Local\Temp\cc06ENfS.s:48     .text._Z41__static_initialization_and_destruction_0v:00000010 $d
C:\Users\DARSTE~1\AppData\Local\Temp\cc06ENfS.s:285    .bss.led:00000000 led
.ARM.exidx.text._Z41__static_initialization_and_destruction_0v:00000000 $d
C:\Users\DARSTE~1\AppData\Local\Temp\cc06ENfS.s:56     .text._Z12__io_putchari:00000000 $t
C:\Users\DARSTE~1\AppData\Local\Temp\cc06ENfS.s:62     .text._Z12__io_putchari:00000000 _Z12__io_putchari
C:\Users\DARSTE~1\AppData\Local\Temp\cc06ENfS.s:102    .text._Z12__io_putchari:0000001c $d
.ARM.exidx.text._Z12__io_putchari:00000000 $d
C:\Users\DARSTE~1\AppData\Local\Temp\cc06ENfS.s:108    .text.setup:00000000 $t
C:\Users\DARSTE~1\AppData\Local\Temp\cc06ENfS.s:114    .text.setup:00000000 setup
C:\Users\DARSTE~1\AppData\Local\Temp\cc06ENfS.s:183    .text.setup:00000054 $d
            .ARM.exidx.text.setup:00000000 $d
C:\Users\DARSTE~1\AppData\Local\Temp\cc06ENfS.s:189    .text.loop:00000000 $t
C:\Users\DARSTE~1\AppData\Local\Temp\cc06ENfS.s:195    .text.loop:00000000 loop
             .ARM.exidx.text.loop:00000000 $d
C:\Users\DARSTE~1\AppData\Local\Temp\cc06ENfS.s:211    .text.HAL_TIM_PWM_PulseFinishedCallback:00000000 $t
C:\Users\DARSTE~1\AppData\Local\Temp\cc06ENfS.s:217    .text.HAL_TIM_PWM_PulseFinishedCallback:00000000 HAL_TIM_PWM_PulseFinishedCallback
C:\Users\DARSTE~1\AppData\Local\Temp\cc06ENfS.s:245    .text.HAL_TIM_PWM_PulseFinishedCallback:0000000c $d
.ARM.extab.text.HAL_TIM_PWM_PulseFinishedCallback:00000000 $d
.ARM.exidx.text.HAL_TIM_PWM_PulseFinishedCallback:00000000 $d
C:\Users\DARSTE~1\AppData\Local\Temp\cc06ENfS.s:251    .text._GLOBAL__sub_I__Z12__io_putchari:00000000 $t
C:\Users\DARSTE~1\AppData\Local\Temp\cc06ENfS.s:256    .text._GLOBAL__sub_I__Z12__io_putchari:00000000 _GLOBAL__sub_I__Z12__io_putchari
.ARM.exidx.text._GLOBAL__sub_I__Z12__io_putchari:00000000 $d
C:\Users\DARSTE~1\AppData\Local\Temp\cc06ENfS.s:278    .init_array:00000000 $d
C:\Users\DARSTE~1\AppData\Local\Temp\cc06ENfS.s:282    .bss.led:00000000 $d

UNDEFINED SYMBOLS
_ZN7WS2812BC1EP17TIM_HandleTypeDefmt
htim1
HAL_UART_Transmit
huart1
__aeabi_unwind_cpp_pr0
HAL_Delay
_ZN7WS2812B4initEh
_ZN7WS2812B10solidColorEmtt
_ZN7WS2812B6renderEv
HAL_TIM_PWM_Stop_DMA
__aeabi_unwind_cpp_pr1
