ARM GAS  C:\Users\DARSTE~1\AppData\Local\Temp\ccEtBrvh.s 			page 1


   1              		.cpu cortex-m3
   2              		.arch armv7-m
   3              		.fpu softvfp
   4              		.eabi_attribute 20, 1
   5              		.eabi_attribute 21, 1
   6              		.eabi_attribute 23, 3
   7              		.eabi_attribute 24, 1
   8              		.eabi_attribute 25, 1
   9              		.eabi_attribute 26, 1
  10              		.eabi_attribute 30, 1
  11              		.eabi_attribute 34, 1
  12              		.eabi_attribute 18, 4
  13              		.file	"app.cpp"
  14              		.text
  15              	.Ltext0:
  16              		.cfi_sections	.debug_frame
  17              		.file 1 "App/app.cpp"
  18              		.section	.text._Z41__static_initialization_and_destruction_0v,"ax",%progbits
  19              		.align	1
  20              		.syntax unified
  21              		.thumb
  22              		.thumb_func
  24              	_Z41__static_initialization_and_destruction_0v:
  25              		.fnstart
  26              	.LFB70:
   1:App/app.cpp   **** #include "app.h"
   2:App/app.cpp   **** #include "stm32Abstract.h"
   3:App/app.cpp   **** #include "ws2812b.h"
   4:App/app.cpp   **** #include "modbusRTU.h"
   5:App/app.cpp   **** #include <stdio.h>
   6:App/app.cpp   **** 
   7:App/app.cpp   **** 
   8:App/app.cpp   **** extern TIM_HandleTypeDef htim1;
   9:App/app.cpp   **** extern DMA_HandleTypeDef hdma_tim1_ch1;
  10:App/app.cpp   **** extern UART_HandleTypeDef huart1;
  11:App/app.cpp   **** #ifdef __GNUC__
  12:App/app.cpp   **** #define PUTCHAR_PROTOTYPE int __io_putchar(int ch)
  13:App/app.cpp   **** #else
  14:App/app.cpp   **** #define PUTCHAR_PROTOTYPE int fputc(int ch, FILE *f)
  15:App/app.cpp   **** #endif
  16:App/app.cpp   **** PUTCHAR_PROTOTYPE
  17:App/app.cpp   **** {
  18:App/app.cpp   ****     // -------------- Change huart_x to your appropriate Hardware UART/USART
  19:App/app.cpp   ****     HAL_UART_Transmit(&huart1, (uint8_t *)&ch, 1, HAL_MAX_DELAY);
  20:App/app.cpp   ****     return ch;
  21:App/app.cpp   **** }
  22:App/app.cpp   **** 
  23:App/app.cpp   **** WS2812B led = WS2812B(&htim1, TIM_CHANNEL_1, 60);
  24:App/app.cpp   **** ModbusRTU modbusClient = ModbusRTU(&huart1);
  25:App/app.cpp   **** 
  26:App/app.cpp   **** 
  27:App/app.cpp   **** /*
  28:App/app.cpp   **** =====================================================================
  29:App/app.cpp   ****     SETUP
  30:App/app.cpp   **** =====================================================================
  31:App/app.cpp   **** */
  32:App/app.cpp   **** void setup()
ARM GAS  C:\Users\DARSTE~1\AppData\Local\Temp\ccEtBrvh.s 			page 2


  33:App/app.cpp   **** {
  34:App/app.cpp   ****     HAL_Delay(1000);
  35:App/app.cpp   **** 
  36:App/app.cpp   ****     led.init();
  37:App/app.cpp   ****     modbusClient.init();
  38:App/app.cpp   **** 
  39:App/app.cpp   ****     // modbusClient.request(0x01, MODBUS_RTU_READ_HOLDING_REGISTERS, 0x00, 0x02);
  40:App/app.cpp   **** }
  41:App/app.cpp   **** 
  42:App/app.cpp   **** 
  43:App/app.cpp   **** /*
  44:App/app.cpp   **** =====================================================================
  45:App/app.cpp   ****     MAIN LOOP
  46:App/app.cpp   **** =====================================================================
  47:App/app.cpp   **** */
  48:App/app.cpp   **** void loop()
  49:App/app.cpp   **** {
  50:App/app.cpp   ****     // led.solidColor(0xFF0000, 0, 29);
  51:App/app.cpp   ****     // // led.solidColor(0x000000, 2, 2);
  52:App/app.cpp   ****     // led.solidColor(0x000000, 30, 59);
  53:App/app.cpp   ****     // led.render();
  54:App/app.cpp   ****     // HAL_Delay(200);
  55:App/app.cpp   ****     // led.solidColor(0x000000, 0, 29);
  56:App/app.cpp   ****     // // led.solidColor(0x000000, 2, 2);
  57:App/app.cpp   ****     // led.solidColor(0x0000FF, 30, 59);
  58:App/app.cpp   ****     // led.render();
  59:App/app.cpp   ****     // HAL_Delay(200);
  60:App/app.cpp   **** 
  61:App/app.cpp   ****     modbusClient.request(0x01, MODBUS_RTU_READ_HOLDING_REGISTERS, 0x02, 0x02);
  62:App/app.cpp   ****     HAL_Delay(1000);
  63:App/app.cpp   **** }
  64:App/app.cpp   **** 
  65:App/app.cpp   **** 
  66:App/app.cpp   **** /*
  67:App/app.cpp   **** =====================================================================
  68:App/app.cpp   ****     CALLBACKS
  69:App/app.cpp   **** =====================================================================
  70:App/app.cpp   **** */
  71:App/app.cpp   **** void HAL_TIM_PWM_PulseFinishedCallback(TIM_HandleTypeDef *htim)
  72:App/app.cpp   **** {
  73:App/app.cpp   ****     HAL_TIM_PWM_Stop_DMA(&htim1, TIM_CHANNEL_1);
  74:App/app.cpp   ****     led.UPDATE_STATE = WS2812B_UPDATE_FINISHED;
  75:App/app.cpp   **** }...
  27              		.loc 1 75 1 view -0
  28              		.cfi_startproc
  29              		@ args = 0, pretend = 0, frame = 0
  30              		@ frame_needed = 0, uses_anonymous_args = 0
  31 0000 08B5     		push	{r3, lr}
  32              	.LCFI0:
  33              		.cfi_def_cfa_offset 8
  34              		.cfi_offset 3, -8
  35              		.cfi_offset 14, -4
  23:App/app.cpp   **** WS2812B led = WS2812B(&htim1, TIM_CHANNEL_1, 60);
  36              		.loc 1 23 48 is_stmt 0 view .LVU1
  37 0002 3C23     		movs	r3, #60
  38 0004 0022     		movs	r2, #0
  39 0006 0449     		ldr	r1, .L3
ARM GAS  C:\Users\DARSTE~1\AppData\Local\Temp\ccEtBrvh.s 			page 3


  40 0008 0448     		ldr	r0, .L3+4
  41 000a FFF7FEFF 		bl	_ZN7WS2812BC1EP17TIM_HandleTypeDefmt
  42              	.LVL0:
  24:App/app.cpp   **** ModbusRTU modbusClient = ModbusRTU(&huart1);
  43              		.loc 1 24 43 view .LVU2
  44 000e 0449     		ldr	r1, .L3+8
  45 0010 0448     		ldr	r0, .L3+12
  46 0012 FFF7FEFF 		bl	_ZN9ModbusRTUC1EP20__UART_HandleTypeDef
  47              	.LVL1:
  48              		.loc 1 75 1 view .LVU3
  49 0016 08BD     		pop	{r3, pc}
  50              	.L4:
  51              		.align	2
  52              	.L3:
  53 0018 00000000 		.word	htim1
  54 001c 00000000 		.word	led
  55 0020 00000000 		.word	huart1
  56 0024 00000000 		.word	modbusClient
  57              		.cfi_endproc
  58              	.LFE70:
  59              		.cantunwind
  60              		.fnend
  62              		.section	.text._Z12__io_putchari,"ax",%progbits
  63              		.align	1
  64              		.global	_Z12__io_putchari
  65              		.syntax unified
  66              		.thumb
  67              		.thumb_func
  69              	_Z12__io_putchari:
  70              		.fnstart
  71              	.LVL2:
  72              	.LFB66:
  17:App/app.cpp   **** {
  73              		.loc 1 17 1 is_stmt 1 view -0
  74              		.cfi_startproc
  75              		@ args = 0, pretend = 0, frame = 8
  76              		@ frame_needed = 0, uses_anonymous_args = 0
  17:App/app.cpp   **** {
  77              		.loc 1 17 1 is_stmt 0 view .LVU5
  78 0000 00B5     		push	{lr}
  79              		.save {lr}
  80              	.LCFI1:
  81              		.cfi_def_cfa_offset 4
  82              		.cfi_offset 14, -4
  83              		.pad #12
  84 0002 83B0     		sub	sp, sp, #12
  85              	.LCFI2:
  86              		.cfi_def_cfa_offset 16
  87 0004 0190     		str	r0, [sp, #4]
  19:App/app.cpp   ****     HAL_UART_Transmit(&huart1, (uint8_t *)&ch, 1, HAL_MAX_DELAY);
  88              		.loc 1 19 5 is_stmt 1 view .LVU6
  19:App/app.cpp   ****     HAL_UART_Transmit(&huart1, (uint8_t *)&ch, 1, HAL_MAX_DELAY);
  89              		.loc 1 19 22 is_stmt 0 view .LVU7
  90 0006 4FF0FF33 		mov	r3, #-1
  91 000a 0122     		movs	r2, #1
  92 000c 01A9     		add	r1, sp, #4
  93 000e 0348     		ldr	r0, .L7
ARM GAS  C:\Users\DARSTE~1\AppData\Local\Temp\ccEtBrvh.s 			page 4


  94              	.LVL3:
  19:App/app.cpp   ****     HAL_UART_Transmit(&huart1, (uint8_t *)&ch, 1, HAL_MAX_DELAY);
  95              		.loc 1 19 22 view .LVU8
  96 0010 FFF7FEFF 		bl	HAL_UART_Transmit
  97              	.LVL4:
  20:App/app.cpp   ****     return ch;
  98              		.loc 1 20 5 is_stmt 1 view .LVU9
  21:App/app.cpp   **** }
  99              		.loc 1 21 1 is_stmt 0 view .LVU10
 100 0014 0198     		ldr	r0, [sp, #4]
 101 0016 03B0     		add	sp, sp, #12
 102              	.LCFI3:
 103              		.cfi_def_cfa_offset 4
 104              		@ sp needed
 105 0018 5DF804FB 		ldr	pc, [sp], #4
 106              	.L8:
 107              		.align	2
 108              	.L7:
 109 001c 00000000 		.word	huart1
 110              		.cfi_endproc
 111              	.LFE66:
 112              		.fnend
 114              		.section	.text.setup,"ax",%progbits
 115              		.align	1
 116              		.global	setup
 117              		.syntax unified
 118              		.thumb
 119              		.thumb_func
 121              	setup:
 122              		.fnstart
 123              	.LFB67:
  33:App/app.cpp   **** {
 124              		.loc 1 33 1 is_stmt 1 view -0
 125              		.cfi_startproc
 126              		@ args = 0, pretend = 0, frame = 0
 127              		@ frame_needed = 0, uses_anonymous_args = 0
 128 0000 08B5     		push	{r3, lr}
 129              		.save {r3, lr}
 130              	.LCFI4:
 131              		.cfi_def_cfa_offset 8
 132              		.cfi_offset 3, -8
 133              		.cfi_offset 14, -4
  34:App/app.cpp   ****     HAL_Delay(1000);
 134              		.loc 1 34 5 view .LVU12
  34:App/app.cpp   ****     HAL_Delay(1000);
 135              		.loc 1 34 14 is_stmt 0 view .LVU13
 136 0002 4FF47A70 		mov	r0, #1000
 137 0006 FFF7FEFF 		bl	HAL_Delay
 138              	.LVL5:
  36:App/app.cpp   ****     led.init();
 139              		.loc 1 36 5 is_stmt 1 view .LVU14
  36:App/app.cpp   ****     led.init();
 140              		.loc 1 36 13 is_stmt 0 view .LVU15
 141 000a 0221     		movs	r1, #2
 142 000c 0348     		ldr	r0, .L11
 143 000e FFF7FEFF 		bl	_ZN7WS2812B4initEh
 144              	.LVL6:
ARM GAS  C:\Users\DARSTE~1\AppData\Local\Temp\ccEtBrvh.s 			page 5


  37:App/app.cpp   ****     modbusClient.init();
 145              		.loc 1 37 5 is_stmt 1 view .LVU16
  37:App/app.cpp   ****     modbusClient.init();
 146              		.loc 1 37 22 is_stmt 0 view .LVU17
 147 0012 0021     		movs	r1, #0
 148 0014 0248     		ldr	r0, .L11+4
 149 0016 FFF7FEFF 		bl	_ZN9ModbusRTU4initEh
 150              	.LVL7:
  40:App/app.cpp   **** }
 151              		.loc 1 40 1 view .LVU18
 152 001a 08BD     		pop	{r3, pc}
 153              	.L12:
 154              		.align	2
 155              	.L11:
 156 001c 00000000 		.word	led
 157 0020 00000000 		.word	modbusClient
 158              		.cfi_endproc
 159              	.LFE67:
 160              		.fnend
 162              		.section	.text.loop,"ax",%progbits
 163              		.align	1
 164              		.global	loop
 165              		.syntax unified
 166              		.thumb
 167              		.thumb_func
 169              	loop:
 170              		.fnstart
 171              	.LFB68:
  49:App/app.cpp   **** {
 172              		.loc 1 49 1 is_stmt 1 view -0
 173              		.cfi_startproc
 174              		@ args = 0, pretend = 0, frame = 0
 175              		@ frame_needed = 0, uses_anonymous_args = 0
 176 0000 00B5     		push	{lr}
 177              		.save {lr}
 178              	.LCFI5:
 179              		.cfi_def_cfa_offset 4
 180              		.cfi_offset 14, -4
 181              		.pad #12
 182 0002 83B0     		sub	sp, sp, #12
 183              	.LCFI6:
 184              		.cfi_def_cfa_offset 16
  61:App/app.cpp   ****     modbusClient.request(0x01, MODBUS_RTU_READ_HOLDING_REGISTERS, 0x02, 0x02);
 185              		.loc 1 61 5 view .LVU20
  61:App/app.cpp   ****     modbusClient.request(0x01, MODBUS_RTU_READ_HOLDING_REGISTERS, 0x02, 0x02);
 186              		.loc 1 61 25 is_stmt 0 view .LVU21
 187 0004 0223     		movs	r3, #2
 188 0006 0093     		str	r3, [sp]
 189 0008 0322     		movs	r2, #3
 190 000a 0121     		movs	r1, #1
 191 000c 0448     		ldr	r0, .L15
 192 000e FFF7FEFF 		bl	_ZN9ModbusRTU7requestEhhtt
 193              	.LVL8:
  62:App/app.cpp   ****     HAL_Delay(1000);
 194              		.loc 1 62 5 is_stmt 1 view .LVU22
  62:App/app.cpp   ****     HAL_Delay(1000);
 195              		.loc 1 62 14 is_stmt 0 view .LVU23
ARM GAS  C:\Users\DARSTE~1\AppData\Local\Temp\ccEtBrvh.s 			page 6


 196 0012 4FF47A70 		mov	r0, #1000
 197 0016 FFF7FEFF 		bl	HAL_Delay
 198              	.LVL9:
  63:App/app.cpp   **** }
 199              		.loc 1 63 1 view .LVU24
 200 001a 03B0     		add	sp, sp, #12
 201              	.LCFI7:
 202              		.cfi_def_cfa_offset 4
 203              		@ sp needed
 204 001c 5DF804FB 		ldr	pc, [sp], #4
 205              	.L16:
 206              		.align	2
 207              	.L15:
 208 0020 00000000 		.word	modbusClient
 209              		.cfi_endproc
 210              	.LFE68:
 211              		.fnend
 213              		.section	.text.HAL_TIM_PWM_PulseFinishedCallback,"ax",%progbits
 214              		.align	1
 215              		.global	HAL_TIM_PWM_PulseFinishedCallback
 216              		.syntax unified
 217              		.thumb
 218              		.thumb_func
 220              	HAL_TIM_PWM_PulseFinishedCallback:
 221              		.fnstart
 222              	.LVL10:
 223              	.LFB69:
  72:App/app.cpp   **** {
 224              		.loc 1 72 1 is_stmt 1 view -0
 225              		.cfi_startproc
 226              		@ args = 0, pretend = 0, frame = 0
 227              		@ frame_needed = 0, uses_anonymous_args = 0
  72:App/app.cpp   **** {
 228              		.loc 1 72 1 is_stmt 0 view .LVU26
 229 0000 08B5     		push	{r3, lr}
 230              		.save {r3, lr}
 231              	.LCFI8:
 232              		.cfi_def_cfa_offset 8
 233              		.cfi_offset 3, -8
 234              		.cfi_offset 14, -4
  73:App/app.cpp   ****     HAL_TIM_PWM_Stop_DMA(&htim1, TIM_CHANNEL_1);
 235              		.loc 1 73 5 is_stmt 1 view .LVU27
  73:App/app.cpp   ****     HAL_TIM_PWM_Stop_DMA(&htim1, TIM_CHANNEL_1);
 236              		.loc 1 73 25 is_stmt 0 view .LVU28
 237 0002 0021     		movs	r1, #0
 238 0004 0348     		ldr	r0, .L19
 239              	.LVL11:
  73:App/app.cpp   ****     HAL_TIM_PWM_Stop_DMA(&htim1, TIM_CHANNEL_1);
 240              		.loc 1 73 25 view .LVU29
 241 0006 FFF7FEFF 		bl	HAL_TIM_PWM_Stop_DMA
 242              	.LVL12:
  74:App/app.cpp   ****     led.UPDATE_STATE = WS2812B_UPDATE_FINISHED;
 243              		.loc 1 74 5 is_stmt 1 view .LVU30
  74:App/app.cpp   ****     led.UPDATE_STATE = WS2812B_UPDATE_FINISHED;
 244              		.loc 1 74 22 is_stmt 0 view .LVU31
 245 000a 034B     		ldr	r3, .L19+4
 246 000c 0122     		movs	r2, #1
ARM GAS  C:\Users\DARSTE~1\AppData\Local\Temp\ccEtBrvh.s 			page 7


 247 000e 1A70     		strb	r2, [r3]
 248              		.loc 1 75 1 view .LVU32
 249 0010 08BD     		pop	{r3, pc}
 250              	.L20:
 251 0012 00BF     		.align	2
 252              	.L19:
 253 0014 00000000 		.word	htim1
 254 0018 00000000 		.word	led
 255              		.cfi_endproc
 256              	.LFE69:
 257              		.fnend
 259              		.section	.text._GLOBAL__sub_I__Z12__io_putchari,"ax",%progbits
 260              		.align	1
 261              		.syntax unified
 262              		.thumb
 263              		.thumb_func
 265              	_GLOBAL__sub_I__Z12__io_putchari:
 266              		.fnstart
 267              	.LFB71:
 268              		.loc 1 75 1 is_stmt 1 view -0
 269              		.cfi_startproc
 270              		@ args = 0, pretend = 0, frame = 0
 271              		@ frame_needed = 0, uses_anonymous_args = 0
 272 0000 08B5     		push	{r3, lr}
 273              	.LCFI9:
 274              		.cfi_def_cfa_offset 8
 275              		.cfi_offset 3, -8
 276              		.cfi_offset 14, -4
 277              		.loc 1 75 1 is_stmt 0 view .LVU34
 278 0002 FFF7FEFF 		bl	_Z41__static_initialization_and_destruction_0v
 279              	.LVL13:
 280 0006 08BD     		pop	{r3, pc}
 281              		.cfi_endproc
 282              	.LFE71:
 283              		.cantunwind
 284              		.fnend
 286              		.section	.init_array,"aw",%init_array
 287              		.align	2
 288 0000 00000000 		.word	_GLOBAL__sub_I__Z12__io_putchari(target1)
 289              		.global	modbusClient
 290              		.section	.bss.modbusClient,"aw",%nobits
 291              		.align	2
 294              	modbusClient:
 295 0000 00000000 		.space	20
 295      00000000 
 295      00000000 
 295      00000000 
 295      00000000 
 296              		.global	led
 297              		.section	.bss.led,"aw",%nobits
 298              		.align	2
 301              	led:
 302 0000 00000000 		.space	36
 302      00000000 
 302      00000000 
 302      00000000 
 302      00000000 
ARM GAS  C:\Users\DARSTE~1\AppData\Local\Temp\ccEtBrvh.s 			page 8


 303              		.text
 304              	.Letext0:
 305              		.file 2 "C:/msys64/mingw64/arm-none-eabi/include/machine/_default_types.h"
 306              		.file 3 "C:/msys64/mingw64/arm-none-eabi/include/sys/_stdint.h"
 307              		.file 4 "Drivers/CMSIS/Device/ST/STM32F1xx/Include/stm32f103x6.h"
 308              		.file 5 "Drivers/CMSIS/Device/ST/STM32F1xx/Include/stm32f1xx.h"
 309              		.file 6 "Drivers/STM32F1xx_HAL_Driver/Inc/stm32f1xx_hal_def.h"
 310              		.file 7 "Drivers/STM32F1xx_HAL_Driver/Inc/stm32f1xx_hal_dma.h"
 311              		.file 8 "Drivers/STM32F1xx_HAL_Driver/Inc/stm32f1xx_hal_tim.h"
 312              		.file 9 "Drivers/STM32F1xx_HAL_Driver/Inc/stm32f1xx_hal_uart.h"
 313              		.file 10 "Drivers/STM32F1xx_HAL_Driver/Inc/stm32f1xx_hal.h"
 314              		.file 11 "App/WS2812B/ws2812b.h"
 315              		.file 12 "App/ModbusRTU/modbusRTU.h"
ARM GAS  C:\Users\DARSTE~1\AppData\Local\Temp\ccEtBrvh.s 			page 9


DEFINED SYMBOLS
                            *ABS*:00000000 app.cpp
C:\Users\DARSTE~1\AppData\Local\Temp\ccEtBrvh.s:19     .text._Z41__static_initialization_and_destruction_0v:00000000 $t
C:\Users\DARSTE~1\AppData\Local\Temp\ccEtBrvh.s:24     .text._Z41__static_initialization_and_destruction_0v:00000000 _Z41__static_initialization_and_destruction_0v
C:\Users\DARSTE~1\AppData\Local\Temp\ccEtBrvh.s:53     .text._Z41__static_initialization_and_destruction_0v:00000018 $d
C:\Users\DARSTE~1\AppData\Local\Temp\ccEtBrvh.s:301    .bss.led:00000000 led
C:\Users\DARSTE~1\AppData\Local\Temp\ccEtBrvh.s:294    .bss.modbusClient:00000000 modbusClient
.ARM.exidx.text._Z41__static_initialization_and_destruction_0v:00000000 $d
C:\Users\DARSTE~1\AppData\Local\Temp\ccEtBrvh.s:63     .text._Z12__io_putchari:00000000 $t
C:\Users\DARSTE~1\AppData\Local\Temp\ccEtBrvh.s:69     .text._Z12__io_putchari:00000000 _Z12__io_putchari
C:\Users\DARSTE~1\AppData\Local\Temp\ccEtBrvh.s:109    .text._Z12__io_putchari:0000001c $d
.ARM.exidx.text._Z12__io_putchari:00000000 $d
C:\Users\DARSTE~1\AppData\Local\Temp\ccEtBrvh.s:115    .text.setup:00000000 $t
C:\Users\DARSTE~1\AppData\Local\Temp\ccEtBrvh.s:121    .text.setup:00000000 setup
C:\Users\DARSTE~1\AppData\Local\Temp\ccEtBrvh.s:156    .text.setup:0000001c $d
            .ARM.extab.text.setup:00000000 $d
            .ARM.exidx.text.setup:00000000 $d
C:\Users\DARSTE~1\AppData\Local\Temp\ccEtBrvh.s:163    .text.loop:00000000 $t
C:\Users\DARSTE~1\AppData\Local\Temp\ccEtBrvh.s:169    .text.loop:00000000 loop
C:\Users\DARSTE~1\AppData\Local\Temp\ccEtBrvh.s:208    .text.loop:00000020 $d
             .ARM.exidx.text.loop:00000000 $d
C:\Users\DARSTE~1\AppData\Local\Temp\ccEtBrvh.s:214    .text.HAL_TIM_PWM_PulseFinishedCallback:00000000 $t
C:\Users\DARSTE~1\AppData\Local\Temp\ccEtBrvh.s:220    .text.HAL_TIM_PWM_PulseFinishedCallback:00000000 HAL_TIM_PWM_PulseFinishedCallback
C:\Users\DARSTE~1\AppData\Local\Temp\ccEtBrvh.s:253    .text.HAL_TIM_PWM_PulseFinishedCallback:00000014 $d
.ARM.extab.text.HAL_TIM_PWM_PulseFinishedCallback:00000000 $d
.ARM.exidx.text.HAL_TIM_PWM_PulseFinishedCallback:00000000 $d
C:\Users\DARSTE~1\AppData\Local\Temp\ccEtBrvh.s:260    .text._GLOBAL__sub_I__Z12__io_putchari:00000000 $t
C:\Users\DARSTE~1\AppData\Local\Temp\ccEtBrvh.s:265    .text._GLOBAL__sub_I__Z12__io_putchari:00000000 _GLOBAL__sub_I__Z12__io_putchari
.ARM.exidx.text._GLOBAL__sub_I__Z12__io_putchari:00000000 $d
C:\Users\DARSTE~1\AppData\Local\Temp\ccEtBrvh.s:287    .init_array:00000000 $d
C:\Users\DARSTE~1\AppData\Local\Temp\ccEtBrvh.s:291    .bss.modbusClient:00000000 $d
C:\Users\DARSTE~1\AppData\Local\Temp\ccEtBrvh.s:298    .bss.led:00000000 $d

UNDEFINED SYMBOLS
_ZN7WS2812BC1EP17TIM_HandleTypeDefmt
_ZN9ModbusRTUC1EP20__UART_HandleTypeDef
htim1
huart1
HAL_UART_Transmit
__aeabi_unwind_cpp_pr0
HAL_Delay
_ZN7WS2812B4initEh
_ZN9ModbusRTU4initEh
__aeabi_unwind_cpp_pr1
_ZN9ModbusRTU7requestEhhtt
HAL_TIM_PWM_Stop_DMA
