ARM GAS  C:\Users\DARSTE~1\AppData\Local\Temp\ccFz1ymo.s 			page 1


   1              		.cpu cortex-m3
   2              		.arch armv7-m
   3              		.fpu softvfp
   4              		.eabi_attribute 20, 1
   5              		.eabi_attribute 21, 1
   6              		.eabi_attribute 23, 3
   7              		.eabi_attribute 24, 1
   8              		.eabi_attribute 25, 1
   9              		.eabi_attribute 26, 1
  10              		.eabi_attribute 30, 1
  11              		.eabi_attribute 34, 1
  12              		.eabi_attribute 18, 4
  13              		.file	"app.cpp"
  14              		.text
  15              	.Ltext0:
  16              		.cfi_sections	.debug_frame
  17              		.file 1 "App/app.cpp"
  18              		.section	.text._Z41__static_initialization_and_destruction_0v,"ax",%progbits
  19              		.align	1
  20              		.syntax unified
  21              		.thumb
  22              		.thumb_func
  24              	_Z41__static_initialization_and_destruction_0v:
  25              		.fnstart
  26              	.LFB70:
   1:App/app.cpp   **** #include "app.h"
   2:App/app.cpp   **** #include "stm32Abstract.h"
   3:App/app.cpp   **** #include "ws2812b.h"
   4:App/app.cpp   **** #include <stdio.h>
   5:App/app.cpp   **** 
   6:App/app.cpp   **** 
   7:App/app.cpp   **** extern TIM_HandleTypeDef htim1;
   8:App/app.cpp   **** extern DMA_HandleTypeDef hdma_tim1_ch1;
   9:App/app.cpp   **** extern UART_HandleTypeDef huart1;
  10:App/app.cpp   **** #ifdef __GNUC__
  11:App/app.cpp   **** #define PUTCHAR_PROTOTYPE int __io_putchar(int ch)
  12:App/app.cpp   **** #else
  13:App/app.cpp   **** #define PUTCHAR_PROTOTYPE int fputc(int ch, FILE *f)
  14:App/app.cpp   **** #endif
  15:App/app.cpp   **** PUTCHAR_PROTOTYPE
  16:App/app.cpp   **** {
  17:App/app.cpp   ****     // -------------- Change huart_x to your appropriate Hardware UART/USART
  18:App/app.cpp   ****     HAL_UART_Transmit(&huart1, (uint8_t *)&ch, 1, HAL_MAX_DELAY);
  19:App/app.cpp   ****     return ch;
  20:App/app.cpp   **** }
  21:App/app.cpp   **** 
  22:App/app.cpp   **** WS2812B led = WS2812B(&htim1, TIM_CHANNEL_1, 5);
  23:App/app.cpp   **** 
  24:App/app.cpp   **** 
  25:App/app.cpp   **** /*
  26:App/app.cpp   **** =====================================================================
  27:App/app.cpp   ****     SETUP
  28:App/app.cpp   **** =====================================================================
  29:App/app.cpp   **** */
  30:App/app.cpp   **** void setup()
  31:App/app.cpp   **** {
  32:App/app.cpp   ****     HAL_Delay(1000);
ARM GAS  C:\Users\DARSTE~1\AppData\Local\Temp\ccFz1ymo.s 			page 2


  33:App/app.cpp   **** 
  34:App/app.cpp   ****     led.init();
  35:App/app.cpp   **** }
  36:App/app.cpp   **** 
  37:App/app.cpp   **** 
  38:App/app.cpp   **** /*
  39:App/app.cpp   **** =====================================================================
  40:App/app.cpp   ****     MAIN LOOP
  41:App/app.cpp   **** =====================================================================
  42:App/app.cpp   **** */
  43:App/app.cpp   **** void loop()
  44:App/app.cpp   **** {
  45:App/app.cpp   ****     led.solidColor(0xFF0000, 0, 1);
  46:App/app.cpp   ****     led.solidColor(0x000000, 2, 2);
  47:App/app.cpp   ****     led.solidColor(0x000000, 3, 4);
  48:App/app.cpp   ****     led.render();
  49:App/app.cpp   ****     HAL_Delay(200);
  50:App/app.cpp   ****     led.solidColor(0x000000, 0, 1);
  51:App/app.cpp   ****     led.solidColor(0x000000, 2, 2);
  52:App/app.cpp   ****     led.solidColor(0x0000FF, 3, 4);
  53:App/app.cpp   ****     led.render();
  54:App/app.cpp   ****     HAL_Delay(200);
  55:App/app.cpp   ****     // led.solidColor(0xFF0000, 0, 1);
  56:App/app.cpp   ****     // led.solidColor(0x000000, 2, 2);
  57:App/app.cpp   ****     // led.solidColor(0x000000, 3, 4);
  58:App/app.cpp   ****     // led.render();
  59:App/app.cpp   ****     // HAL_Delay(200);
  60:App/app.cpp   ****     // led.solidColor(0x000000, 0, 1);
  61:App/app.cpp   ****     // led.solidColor(0x000000, 2, 2);
  62:App/app.cpp   ****     // led.solidColor(0x0000FF, 3, 4);
  63:App/app.cpp   ****     // led.render();
  64:App/app.cpp   ****     // HAL_Delay(200);
  65:App/app.cpp   **** }
  66:App/app.cpp   **** 
  67:App/app.cpp   **** 
  68:App/app.cpp   **** /*
  69:App/app.cpp   **** =====================================================================
  70:App/app.cpp   ****     CALLBACKS
  71:App/app.cpp   **** =====================================================================
  72:App/app.cpp   **** */
  73:App/app.cpp   **** void HAL_TIM_PWM_PulseFinishedCallback(TIM_HandleTypeDef *htim)
  74:App/app.cpp   **** {
  75:App/app.cpp   ****     HAL_TIM_PWM_Stop_DMA(&htim1, TIM_CHANNEL_1);
  76:App/app.cpp   ****     led.UPDATE_STATE = WS2812B_UPDATE_FINISHED;
  77:App/app.cpp   **** }...
  27              		.loc 1 77 1 view -0
  28              		.cfi_startproc
  29              		@ args = 0, pretend = 0, frame = 0
  30              		@ frame_needed = 0, uses_anonymous_args = 0
  31 0000 08B5     		push	{r3, lr}
  32              	.LCFI0:
  33              		.cfi_def_cfa_offset 8
  34              		.cfi_offset 3, -8
  35              		.cfi_offset 14, -4
  22:App/app.cpp   **** WS2812B led = WS2812B(&htim1, TIM_CHANNEL_1, 5);
  36              		.loc 1 22 47 is_stmt 0 view .LVU1
  37 0002 0523     		movs	r3, #5
ARM GAS  C:\Users\DARSTE~1\AppData\Local\Temp\ccFz1ymo.s 			page 3


  38 0004 0022     		movs	r2, #0
  39 0006 0249     		ldr	r1, .L3
  40 0008 0248     		ldr	r0, .L3+4
  41 000a FFF7FEFF 		bl	_ZN7WS2812BC1EP17TIM_HandleTypeDefmt
  42              	.LVL0:
  43              		.loc 1 77 1 view .LVU2
  44 000e 08BD     		pop	{r3, pc}
  45              	.L4:
  46              		.align	2
  47              	.L3:
  48 0010 00000000 		.word	htim1
  49 0014 00000000 		.word	led
  50              		.cfi_endproc
  51              	.LFE70:
  52              		.cantunwind
  53              		.fnend
  55              		.section	.text._Z12__io_putchari,"ax",%progbits
  56              		.align	1
  57              		.global	_Z12__io_putchari
  58              		.syntax unified
  59              		.thumb
  60              		.thumb_func
  62              	_Z12__io_putchari:
  63              		.fnstart
  64              	.LVL1:
  65              	.LFB66:
  16:App/app.cpp   **** {
  66              		.loc 1 16 1 is_stmt 1 view -0
  67              		.cfi_startproc
  68              		@ args = 0, pretend = 0, frame = 8
  69              		@ frame_needed = 0, uses_anonymous_args = 0
  16:App/app.cpp   **** {
  70              		.loc 1 16 1 is_stmt 0 view .LVU4
  71 0000 00B5     		push	{lr}
  72              		.save {lr}
  73              	.LCFI1:
  74              		.cfi_def_cfa_offset 4
  75              		.cfi_offset 14, -4
  76              		.pad #12
  77 0002 83B0     		sub	sp, sp, #12
  78              	.LCFI2:
  79              		.cfi_def_cfa_offset 16
  80 0004 0190     		str	r0, [sp, #4]
  18:App/app.cpp   ****     HAL_UART_Transmit(&huart1, (uint8_t *)&ch, 1, HAL_MAX_DELAY);
  81              		.loc 1 18 5 is_stmt 1 view .LVU5
  18:App/app.cpp   ****     HAL_UART_Transmit(&huart1, (uint8_t *)&ch, 1, HAL_MAX_DELAY);
  82              		.loc 1 18 22 is_stmt 0 view .LVU6
  83 0006 4FF0FF33 		mov	r3, #-1
  84 000a 0122     		movs	r2, #1
  85 000c 01A9     		add	r1, sp, #4
  86 000e 0348     		ldr	r0, .L7
  87              	.LVL2:
  18:App/app.cpp   ****     HAL_UART_Transmit(&huart1, (uint8_t *)&ch, 1, HAL_MAX_DELAY);
  88              		.loc 1 18 22 view .LVU7
  89 0010 FFF7FEFF 		bl	HAL_UART_Transmit
  90              	.LVL3:
  19:App/app.cpp   ****     return ch;
ARM GAS  C:\Users\DARSTE~1\AppData\Local\Temp\ccFz1ymo.s 			page 4


  91              		.loc 1 19 5 is_stmt 1 view .LVU8
  20:App/app.cpp   **** }
  92              		.loc 1 20 1 is_stmt 0 view .LVU9
  93 0014 0198     		ldr	r0, [sp, #4]
  94 0016 03B0     		add	sp, sp, #12
  95              	.LCFI3:
  96              		.cfi_def_cfa_offset 4
  97              		@ sp needed
  98 0018 5DF804FB 		ldr	pc, [sp], #4
  99              	.L8:
 100              		.align	2
 101              	.L7:
 102 001c 00000000 		.word	huart1
 103              		.cfi_endproc
 104              	.LFE66:
 105              		.fnend
 107              		.section	.text.setup,"ax",%progbits
 108              		.align	1
 109              		.global	setup
 110              		.syntax unified
 111              		.thumb
 112              		.thumb_func
 114              	setup:
 115              		.fnstart
 116              	.LFB67:
  31:App/app.cpp   **** {
 117              		.loc 1 31 1 is_stmt 1 view -0
 118              		.cfi_startproc
 119              		@ args = 0, pretend = 0, frame = 0
 120              		@ frame_needed = 0, uses_anonymous_args = 0
 121 0000 08B5     		push	{r3, lr}
 122              		.save {r3, lr}
 123              	.LCFI4:
 124              		.cfi_def_cfa_offset 8
 125              		.cfi_offset 3, -8
 126              		.cfi_offset 14, -4
  32:App/app.cpp   ****     HAL_Delay(1000);
 127              		.loc 1 32 5 view .LVU11
  32:App/app.cpp   ****     HAL_Delay(1000);
 128              		.loc 1 32 14 is_stmt 0 view .LVU12
 129 0002 4FF47A70 		mov	r0, #1000
 130 0006 FFF7FEFF 		bl	HAL_Delay
 131              	.LVL4:
  34:App/app.cpp   ****     led.init();
 132              		.loc 1 34 5 is_stmt 1 view .LVU13
  34:App/app.cpp   ****     led.init();
 133              		.loc 1 34 13 is_stmt 0 view .LVU14
 134 000a 0221     		movs	r1, #2
 135 000c 0148     		ldr	r0, .L11
 136 000e FFF7FEFF 		bl	_ZN7WS2812B4initEh
 137              	.LVL5:
  35:App/app.cpp   **** }
 138              		.loc 1 35 1 view .LVU15
 139 0012 08BD     		pop	{r3, pc}
 140              	.L12:
 141              		.align	2
 142              	.L11:
ARM GAS  C:\Users\DARSTE~1\AppData\Local\Temp\ccFz1ymo.s 			page 5


 143 0014 00000000 		.word	led
 144              		.cfi_endproc
 145              	.LFE67:
 146              		.fnend
 148              		.section	.text.loop,"ax",%progbits
 149              		.align	1
 150              		.global	loop
 151              		.syntax unified
 152              		.thumb
 153              		.thumb_func
 155              	loop:
 156              		.fnstart
 157              	.LFB68:
  44:App/app.cpp   **** {
 158              		.loc 1 44 1 is_stmt 1 view -0
 159              		.cfi_startproc
 160              		@ args = 0, pretend = 0, frame = 0
 161              		@ frame_needed = 0, uses_anonymous_args = 0
 162 0000 10B5     		push	{r4, lr}
 163              		.save {r4, lr}
 164              	.LCFI5:
 165              		.cfi_def_cfa_offset 8
 166              		.cfi_offset 4, -8
 167              		.cfi_offset 14, -4
  45:App/app.cpp   ****     led.solidColor(0xFF0000, 0, 1);
 168              		.loc 1 45 5 view .LVU17
  45:App/app.cpp   ****     led.solidColor(0xFF0000, 0, 1);
 169              		.loc 1 45 19 is_stmt 0 view .LVU18
 170 0002 194C     		ldr	r4, .L15
 171 0004 0123     		movs	r3, #1
 172 0006 0022     		movs	r2, #0
 173 0008 4FF47F01 		mov	r1, #16711680
 174 000c 2046     		mov	r0, r4
 175 000e FFF7FEFF 		bl	_ZN7WS2812B10solidColorEmtt
 176              	.LVL6:
  46:App/app.cpp   ****     led.solidColor(0x000000, 2, 2);
 177              		.loc 1 46 5 is_stmt 1 view .LVU19
  46:App/app.cpp   ****     led.solidColor(0x000000, 2, 2);
 178              		.loc 1 46 19 is_stmt 0 view .LVU20
 179 0012 0223     		movs	r3, #2
 180 0014 1A46     		mov	r2, r3
 181 0016 0021     		movs	r1, #0
 182 0018 2046     		mov	r0, r4
 183 001a FFF7FEFF 		bl	_ZN7WS2812B10solidColorEmtt
 184              	.LVL7:
  47:App/app.cpp   ****     led.solidColor(0x000000, 3, 4);
 185              		.loc 1 47 5 is_stmt 1 view .LVU21
  47:App/app.cpp   ****     led.solidColor(0x000000, 3, 4);
 186              		.loc 1 47 19 is_stmt 0 view .LVU22
 187 001e 0423     		movs	r3, #4
 188 0020 0322     		movs	r2, #3
 189 0022 0021     		movs	r1, #0
 190 0024 2046     		mov	r0, r4
 191 0026 FFF7FEFF 		bl	_ZN7WS2812B10solidColorEmtt
 192              	.LVL8:
  48:App/app.cpp   ****     led.render();
 193              		.loc 1 48 5 is_stmt 1 view .LVU23
ARM GAS  C:\Users\DARSTE~1\AppData\Local\Temp\ccFz1ymo.s 			page 6


  48:App/app.cpp   ****     led.render();
 194              		.loc 1 48 15 is_stmt 0 view .LVU24
 195 002a 2046     		mov	r0, r4
 196 002c FFF7FEFF 		bl	_ZN7WS2812B6renderEv
 197              	.LVL9:
  49:App/app.cpp   ****     HAL_Delay(200);
 198              		.loc 1 49 5 is_stmt 1 view .LVU25
  49:App/app.cpp   ****     HAL_Delay(200);
 199              		.loc 1 49 14 is_stmt 0 view .LVU26
 200 0030 C820     		movs	r0, #200
 201 0032 FFF7FEFF 		bl	HAL_Delay
 202              	.LVL10:
  50:App/app.cpp   ****     led.solidColor(0x000000, 0, 1);
 203              		.loc 1 50 5 is_stmt 1 view .LVU27
  50:App/app.cpp   ****     led.solidColor(0x000000, 0, 1);
 204              		.loc 1 50 19 is_stmt 0 view .LVU28
 205 0036 0123     		movs	r3, #1
 206 0038 0022     		movs	r2, #0
 207 003a 1146     		mov	r1, r2
 208 003c 2046     		mov	r0, r4
 209 003e FFF7FEFF 		bl	_ZN7WS2812B10solidColorEmtt
 210              	.LVL11:
  51:App/app.cpp   ****     led.solidColor(0x000000, 2, 2);
 211              		.loc 1 51 5 is_stmt 1 view .LVU29
  51:App/app.cpp   ****     led.solidColor(0x000000, 2, 2);
 212              		.loc 1 51 19 is_stmt 0 view .LVU30
 213 0042 0223     		movs	r3, #2
 214 0044 1A46     		mov	r2, r3
 215 0046 0021     		movs	r1, #0
 216 0048 2046     		mov	r0, r4
 217 004a FFF7FEFF 		bl	_ZN7WS2812B10solidColorEmtt
 218              	.LVL12:
  52:App/app.cpp   ****     led.solidColor(0x0000FF, 3, 4);
 219              		.loc 1 52 5 is_stmt 1 view .LVU31
  52:App/app.cpp   ****     led.solidColor(0x0000FF, 3, 4);
 220              		.loc 1 52 19 is_stmt 0 view .LVU32
 221 004e 0423     		movs	r3, #4
 222 0050 0322     		movs	r2, #3
 223 0052 FF21     		movs	r1, #255
 224 0054 2046     		mov	r0, r4
 225 0056 FFF7FEFF 		bl	_ZN7WS2812B10solidColorEmtt
 226              	.LVL13:
  53:App/app.cpp   ****     led.render();
 227              		.loc 1 53 5 is_stmt 1 view .LVU33
  53:App/app.cpp   ****     led.render();
 228              		.loc 1 53 15 is_stmt 0 view .LVU34
 229 005a 2046     		mov	r0, r4
 230 005c FFF7FEFF 		bl	_ZN7WS2812B6renderEv
 231              	.LVL14:
  54:App/app.cpp   ****     HAL_Delay(200);
 232              		.loc 1 54 5 is_stmt 1 view .LVU35
  54:App/app.cpp   ****     HAL_Delay(200);
 233              		.loc 1 54 14 is_stmt 0 view .LVU36
 234 0060 C820     		movs	r0, #200
 235 0062 FFF7FEFF 		bl	HAL_Delay
 236              	.LVL15:
  65:App/app.cpp   **** }
ARM GAS  C:\Users\DARSTE~1\AppData\Local\Temp\ccFz1ymo.s 			page 7


 237              		.loc 1 65 1 view .LVU37
 238 0066 10BD     		pop	{r4, pc}
 239              	.L16:
 240              		.align	2
 241              	.L15:
 242 0068 00000000 		.word	led
 243              		.cfi_endproc
 244              	.LFE68:
 245              		.fnend
 247              		.section	.text.HAL_TIM_PWM_PulseFinishedCallback,"ax",%progbits
 248              		.align	1
 249              		.global	HAL_TIM_PWM_PulseFinishedCallback
 250              		.syntax unified
 251              		.thumb
 252              		.thumb_func
 254              	HAL_TIM_PWM_PulseFinishedCallback:
 255              		.fnstart
 256              	.LVL16:
 257              	.LFB69:
  74:App/app.cpp   **** {
 258              		.loc 1 74 1 is_stmt 1 view -0
 259              		.cfi_startproc
 260              		@ args = 0, pretend = 0, frame = 0
 261              		@ frame_needed = 0, uses_anonymous_args = 0
  74:App/app.cpp   **** {
 262              		.loc 1 74 1 is_stmt 0 view .LVU39
 263 0000 08B5     		push	{r3, lr}
 264              		.save {r3, lr}
 265              	.LCFI6:
 266              		.cfi_def_cfa_offset 8
 267              		.cfi_offset 3, -8
 268              		.cfi_offset 14, -4
  75:App/app.cpp   ****     HAL_TIM_PWM_Stop_DMA(&htim1, TIM_CHANNEL_1);
 269              		.loc 1 75 5 is_stmt 1 view .LVU40
  75:App/app.cpp   ****     HAL_TIM_PWM_Stop_DMA(&htim1, TIM_CHANNEL_1);
 270              		.loc 1 75 25 is_stmt 0 view .LVU41
 271 0002 0021     		movs	r1, #0
 272 0004 0348     		ldr	r0, .L19
 273              	.LVL17:
  75:App/app.cpp   ****     HAL_TIM_PWM_Stop_DMA(&htim1, TIM_CHANNEL_1);
 274              		.loc 1 75 25 view .LVU42
 275 0006 FFF7FEFF 		bl	HAL_TIM_PWM_Stop_DMA
 276              	.LVL18:
  76:App/app.cpp   ****     led.UPDATE_STATE = WS2812B_UPDATE_FINISHED;
 277              		.loc 1 76 5 is_stmt 1 view .LVU43
  76:App/app.cpp   ****     led.UPDATE_STATE = WS2812B_UPDATE_FINISHED;
 278              		.loc 1 76 22 is_stmt 0 view .LVU44
 279 000a 034B     		ldr	r3, .L19+4
 280 000c 0122     		movs	r2, #1
 281 000e 1A70     		strb	r2, [r3]
 282              		.loc 1 77 1 view .LVU45
 283 0010 08BD     		pop	{r3, pc}
 284              	.L20:
 285 0012 00BF     		.align	2
 286              	.L19:
 287 0014 00000000 		.word	htim1
 288 0018 00000000 		.word	led
ARM GAS  C:\Users\DARSTE~1\AppData\Local\Temp\ccFz1ymo.s 			page 8


 289              		.cfi_endproc
 290              	.LFE69:
 291              		.fnend
 293              		.section	.text._GLOBAL__sub_I__Z12__io_putchari,"ax",%progbits
 294              		.align	1
 295              		.syntax unified
 296              		.thumb
 297              		.thumb_func
 299              	_GLOBAL__sub_I__Z12__io_putchari:
 300              		.fnstart
 301              	.LFB71:
 302              		.loc 1 77 1 is_stmt 1 view -0
 303              		.cfi_startproc
 304              		@ args = 0, pretend = 0, frame = 0
 305              		@ frame_needed = 0, uses_anonymous_args = 0
 306 0000 08B5     		push	{r3, lr}
 307              	.LCFI7:
 308              		.cfi_def_cfa_offset 8
 309              		.cfi_offset 3, -8
 310              		.cfi_offset 14, -4
 311              		.loc 1 77 1 is_stmt 0 view .LVU47
 312 0002 FFF7FEFF 		bl	_Z41__static_initialization_and_destruction_0v
 313              	.LVL19:
 314 0006 08BD     		pop	{r3, pc}
 315              		.cfi_endproc
 316              	.LFE71:
 317              		.cantunwind
 318              		.fnend
 320              		.section	.init_array,"aw",%init_array
 321              		.align	2
 322 0000 00000000 		.word	_GLOBAL__sub_I__Z12__io_putchari(target1)
 323              		.global	led
 324              		.section	.bss.led,"aw",%nobits
 325              		.align	2
 328              	led:
 329 0000 00000000 		.space	36
 329      00000000 
 329      00000000 
 329      00000000 
 329      00000000 
 330              		.text
 331              	.Letext0:
 332              		.file 2 "C:/msys64/mingw64/arm-none-eabi/include/machine/_default_types.h"
 333              		.file 3 "C:/msys64/mingw64/arm-none-eabi/include/sys/_stdint.h"
 334              		.file 4 "Drivers/CMSIS/Device/ST/STM32F1xx/Include/stm32f103x6.h"
 335              		.file 5 "Drivers/CMSIS/Device/ST/STM32F1xx/Include/stm32f1xx.h"
 336              		.file 6 "Drivers/STM32F1xx_HAL_Driver/Inc/stm32f1xx_hal_def.h"
 337              		.file 7 "Drivers/STM32F1xx_HAL_Driver/Inc/stm32f1xx_hal_dma.h"
 338              		.file 8 "Drivers/STM32F1xx_HAL_Driver/Inc/stm32f1xx_hal_tim.h"
 339              		.file 9 "Drivers/STM32F1xx_HAL_Driver/Inc/stm32f1xx_hal_uart.h"
 340              		.file 10 "Drivers/STM32F1xx_HAL_Driver/Inc/stm32f1xx_hal.h"
 341              		.file 11 "App/WS2812B/ws2812b.h"
ARM GAS  C:\Users\DARSTE~1\AppData\Local\Temp\ccFz1ymo.s 			page 9


DEFINED SYMBOLS
                            *ABS*:00000000 app.cpp
C:\Users\DARSTE~1\AppData\Local\Temp\ccFz1ymo.s:19     .text._Z41__static_initialization_and_destruction_0v:00000000 $t
C:\Users\DARSTE~1\AppData\Local\Temp\ccFz1ymo.s:24     .text._Z41__static_initialization_and_destruction_0v:00000000 _Z41__static_initialization_and_destruction_0v
C:\Users\DARSTE~1\AppData\Local\Temp\ccFz1ymo.s:48     .text._Z41__static_initialization_and_destruction_0v:00000010 $d
C:\Users\DARSTE~1\AppData\Local\Temp\ccFz1ymo.s:328    .bss.led:00000000 led
.ARM.exidx.text._Z41__static_initialization_and_destruction_0v:00000000 $d
C:\Users\DARSTE~1\AppData\Local\Temp\ccFz1ymo.s:56     .text._Z12__io_putchari:00000000 $t
C:\Users\DARSTE~1\AppData\Local\Temp\ccFz1ymo.s:62     .text._Z12__io_putchari:00000000 _Z12__io_putchari
C:\Users\DARSTE~1\AppData\Local\Temp\ccFz1ymo.s:102    .text._Z12__io_putchari:0000001c $d
.ARM.exidx.text._Z12__io_putchari:00000000 $d
C:\Users\DARSTE~1\AppData\Local\Temp\ccFz1ymo.s:108    .text.setup:00000000 $t
C:\Users\DARSTE~1\AppData\Local\Temp\ccFz1ymo.s:114    .text.setup:00000000 setup
C:\Users\DARSTE~1\AppData\Local\Temp\ccFz1ymo.s:143    .text.setup:00000014 $d
            .ARM.extab.text.setup:00000000 $d
            .ARM.exidx.text.setup:00000000 $d
C:\Users\DARSTE~1\AppData\Local\Temp\ccFz1ymo.s:149    .text.loop:00000000 $t
C:\Users\DARSTE~1\AppData\Local\Temp\ccFz1ymo.s:155    .text.loop:00000000 loop
C:\Users\DARSTE~1\AppData\Local\Temp\ccFz1ymo.s:242    .text.loop:00000068 $d
             .ARM.exidx.text.loop:00000000 $d
C:\Users\DARSTE~1\AppData\Local\Temp\ccFz1ymo.s:248    .text.HAL_TIM_PWM_PulseFinishedCallback:00000000 $t
C:\Users\DARSTE~1\AppData\Local\Temp\ccFz1ymo.s:254    .text.HAL_TIM_PWM_PulseFinishedCallback:00000000 HAL_TIM_PWM_PulseFinishedCallback
C:\Users\DARSTE~1\AppData\Local\Temp\ccFz1ymo.s:287    .text.HAL_TIM_PWM_PulseFinishedCallback:00000014 $d
.ARM.extab.text.HAL_TIM_PWM_PulseFinishedCallback:00000000 $d
.ARM.exidx.text.HAL_TIM_PWM_PulseFinishedCallback:00000000 $d
C:\Users\DARSTE~1\AppData\Local\Temp\ccFz1ymo.s:294    .text._GLOBAL__sub_I__Z12__io_putchari:00000000 $t
C:\Users\DARSTE~1\AppData\Local\Temp\ccFz1ymo.s:299    .text._GLOBAL__sub_I__Z12__io_putchari:00000000 _GLOBAL__sub_I__Z12__io_putchari
.ARM.exidx.text._GLOBAL__sub_I__Z12__io_putchari:00000000 $d
C:\Users\DARSTE~1\AppData\Local\Temp\ccFz1ymo.s:321    .init_array:00000000 $d
C:\Users\DARSTE~1\AppData\Local\Temp\ccFz1ymo.s:325    .bss.led:00000000 $d

UNDEFINED SYMBOLS
_ZN7WS2812BC1EP17TIM_HandleTypeDefmt
htim1
HAL_UART_Transmit
huart1
__aeabi_unwind_cpp_pr0
HAL_Delay
_ZN7WS2812B4initEh
__aeabi_unwind_cpp_pr1
_ZN7WS2812B10solidColorEmtt
_ZN7WS2812B6renderEv
HAL_TIM_PWM_Stop_DMA
