ARM GAS  C:\Users\DARSTE~1\AppData\Local\Temp\ccY9Wffr.s 			page 1


   1              		.cpu cortex-m3
   2              		.arch armv7-m
   3              		.fpu softvfp
   4              		.eabi_attribute 20, 1
   5              		.eabi_attribute 21, 1
   6              		.eabi_attribute 23, 3
   7              		.eabi_attribute 24, 1
   8              		.eabi_attribute 25, 1
   9              		.eabi_attribute 26, 1
  10              		.eabi_attribute 30, 1
  11              		.eabi_attribute 34, 1
  12              		.eabi_attribute 18, 4
  13              		.file	"app.cpp"
  14              		.text
  15              	.Ltext0:
  16              		.cfi_sections	.debug_frame
  17              		.file 1 "App/app.cpp"
  18              		.section	.text._Z41__static_initialization_and_destruction_0v,"ax",%progbits
  19              		.align	1
  20              		.syntax unified
  21              		.thumb
  22              		.thumb_func
  24              	_Z41__static_initialization_and_destruction_0v:
  25              		.fnstart
  26              	.LFB70:
   1:App/app.cpp   **** #include "app.h"
   2:App/app.cpp   **** #include "stm32Abstract.h"
   3:App/app.cpp   **** #include "ws2812b.h"
   4:App/app.cpp   **** #include "modbusRTU.h"
   5:App/app.cpp   **** #include <stdio.h>
   6:App/app.cpp   **** 
   7:App/app.cpp   **** 
   8:App/app.cpp   **** extern TIM_HandleTypeDef htim1;
   9:App/app.cpp   **** extern DMA_HandleTypeDef hdma_tim1_ch1;
  10:App/app.cpp   **** extern UART_HandleTypeDef huart1;
  11:App/app.cpp   **** extern UART_HandleTypeDef huart2;
  12:App/app.cpp   **** #ifdef __cplusplus
  13:App/app.cpp   **** extern "C" {
  14:App/app.cpp   **** #endif /* __cplusplus */
  15:App/app.cpp   **** #ifdef __GNUC__
  16:App/app.cpp   **** #define PUTCHAR_PROTOTYPE int __io_putchar(int ch)
  17:App/app.cpp   **** #else
  18:App/app.cpp   **** #define PUTCHAR_PROTOTYPE int fputc(int ch, FILE *f)
  19:App/app.cpp   **** #endif
  20:App/app.cpp   **** PUTCHAR_PROTOTYPE
  21:App/app.cpp   **** {
  22:App/app.cpp   ****     // -------------- Change huart_x to your appropriate Hardware UART/USART
  23:App/app.cpp   ****     HAL_UART_Transmit(&huart2, (uint8_t *)&ch, 1, HAL_MAX_DELAY);
  24:App/app.cpp   ****     return ch;
  25:App/app.cpp   **** }
  26:App/app.cpp   **** #ifdef __cplusplus
  27:App/app.cpp   **** }
  28:App/app.cpp   **** #endif /* __cplusplus */
  29:App/app.cpp   **** 
  30:App/app.cpp   **** 
  31:App/app.cpp   **** WS2812B led = WS2812B(&htim1, TIM_CHANNEL_1, 10);
  32:App/app.cpp   **** ModbusRTU modbusClient = ModbusRTU(&huart1);
ARM GAS  C:\Users\DARSTE~1\AppData\Local\Temp\ccY9Wffr.s 			page 2


  33:App/app.cpp   **** 
  34:App/app.cpp   **** 
  35:App/app.cpp   **** /*
  36:App/app.cpp   **** =====================================================================
  37:App/app.cpp   ****     SETUP
  38:App/app.cpp   **** =====================================================================
  39:App/app.cpp   **** */
  40:App/app.cpp   **** void setup()
  41:App/app.cpp   **** {
  42:App/app.cpp   ****     HAL_Delay(1000);
  43:App/app.cpp   **** 
  44:App/app.cpp   ****     led.init();
  45:App/app.cpp   ****     modbusClient.init();
  46:App/app.cpp   **** 
  47:App/app.cpp   ****     modbusClient.request(0x01, 0x03, 0x00, 0x02);
  48:App/app.cpp   **** }
  49:App/app.cpp   **** 
  50:App/app.cpp   **** 
  51:App/app.cpp   **** /*
  52:App/app.cpp   **** =====================================================================
  53:App/app.cpp   ****     MAIN LOOP
  54:App/app.cpp   **** =====================================================================
  55:App/app.cpp   **** */
  56:App/app.cpp   **** void loop()
  57:App/app.cpp   **** {
  58:App/app.cpp   ****     // led.solidColor(0xFF0000, 0, 29);
  59:App/app.cpp   ****     // // led.solidColor(0x000000, 2, 2);
  60:App/app.cpp   ****     // led.solidColor(0x000000, 30, 59);
  61:App/app.cpp   ****     // led.render();
  62:App/app.cpp   ****     // HAL_Delay(200);
  63:App/app.cpp   ****     // led.solidColor(0x000000, 0, 29);
  64:App/app.cpp   ****     // // led.solidColor(0x000000, 2, 2);
  65:App/app.cpp   ****     // led.solidColor(0x0000FF, 30, 59);
  66:App/app.cpp   ****     // led.render();
  67:App/app.cpp   ****     // HAL_Delay(200);
  68:App/app.cpp   **** 
  69:App/app.cpp   ****     modbusClient.request(0x01, MODBUS_RTU_READ_HOLDING_REGISTERS, 0x0002, 0x02);
  70:App/app.cpp   ****     HAL_Delay(1000);
  71:App/app.cpp   ****     for (uint8_t i = 0; i < 9; i++)
  72:App/app.cpp   ****         printf("%x ", modbusClient.receiveBuffer[i]);
  73:App/app.cpp   ****     printf("\n");
  74:App/app.cpp   ****     HAL_Delay(1000);
  75:App/app.cpp   **** }
  76:App/app.cpp   **** 
  77:App/app.cpp   **** 
  78:App/app.cpp   **** /*
  79:App/app.cpp   **** =====================================================================
  80:App/app.cpp   ****     CALLBACKS
  81:App/app.cpp   **** =====================================================================
  82:App/app.cpp   **** */
  83:App/app.cpp   **** void HAL_TIM_PWM_PulseFinishedCallback(TIM_HandleTypeDef *htim)
  84:App/app.cpp   **** {
  85:App/app.cpp   ****     HAL_TIM_PWM_Stop_DMA(&htim1, TIM_CHANNEL_1);
  86:App/app.cpp   ****     led.UPDATE_STATE = WS2812B_UPDATE_FINISHED;
  87:App/app.cpp   **** }...
  27              		.loc 1 87 1 view -0
  28              		.cfi_startproc
ARM GAS  C:\Users\DARSTE~1\AppData\Local\Temp\ccY9Wffr.s 			page 3


  29              		@ args = 0, pretend = 0, frame = 0
  30              		@ frame_needed = 0, uses_anonymous_args = 0
  31 0000 08B5     		push	{r3, lr}
  32              	.LCFI0:
  33              		.cfi_def_cfa_offset 8
  34              		.cfi_offset 3, -8
  35              		.cfi_offset 14, -4
  31:App/app.cpp   **** WS2812B led = WS2812B(&htim1, TIM_CHANNEL_1, 10);
  36              		.loc 1 31 48 is_stmt 0 view .LVU1
  37 0002 0A23     		movs	r3, #10
  38 0004 0022     		movs	r2, #0
  39 0006 0449     		ldr	r1, .L3
  40 0008 0448     		ldr	r0, .L3+4
  41 000a FFF7FEFF 		bl	_ZN7WS2812BC1EP17TIM_HandleTypeDefmt
  42              	.LVL0:
  32:App/app.cpp   **** ModbusRTU modbusClient = ModbusRTU(&huart1);
  43              		.loc 1 32 43 view .LVU2
  44 000e 0449     		ldr	r1, .L3+8
  45 0010 0448     		ldr	r0, .L3+12
  46 0012 FFF7FEFF 		bl	_ZN9ModbusRTUC1EP20__UART_HandleTypeDef
  47              	.LVL1:
  48              		.loc 1 87 1 view .LVU3
  49 0016 08BD     		pop	{r3, pc}
  50              	.L4:
  51              		.align	2
  52              	.L3:
  53 0018 00000000 		.word	htim1
  54 001c 00000000 		.word	led
  55 0020 00000000 		.word	huart1
  56 0024 00000000 		.word	modbusClient
  57              		.cfi_endproc
  58              	.LFE70:
  59              		.cantunwind
  60              		.fnend
  62              		.section	.text.__io_putchar,"ax",%progbits
  63              		.align	1
  64              		.global	__io_putchar
  65              		.syntax unified
  66              		.thumb
  67              		.thumb_func
  69              	__io_putchar:
  70              		.fnstart
  71              	.LVL2:
  72              	.LFB66:
  21:App/app.cpp   **** {
  73              		.loc 1 21 1 is_stmt 1 view -0
  74              		.cfi_startproc
  75              		@ args = 0, pretend = 0, frame = 8
  76              		@ frame_needed = 0, uses_anonymous_args = 0
  21:App/app.cpp   **** {
  77              		.loc 1 21 1 is_stmt 0 view .LVU5
  78 0000 00B5     		push	{lr}
  79              		.save {lr}
  80              	.LCFI1:
  81              		.cfi_def_cfa_offset 4
  82              		.cfi_offset 14, -4
  83              		.pad #12
ARM GAS  C:\Users\DARSTE~1\AppData\Local\Temp\ccY9Wffr.s 			page 4


  84 0002 83B0     		sub	sp, sp, #12
  85              	.LCFI2:
  86              		.cfi_def_cfa_offset 16
  87 0004 0190     		str	r0, [sp, #4]
  23:App/app.cpp   ****     HAL_UART_Transmit(&huart2, (uint8_t *)&ch, 1, HAL_MAX_DELAY);
  88              		.loc 1 23 5 is_stmt 1 view .LVU6
  23:App/app.cpp   ****     HAL_UART_Transmit(&huart2, (uint8_t *)&ch, 1, HAL_MAX_DELAY);
  89              		.loc 1 23 22 is_stmt 0 view .LVU7
  90 0006 4FF0FF33 		mov	r3, #-1
  91 000a 0122     		movs	r2, #1
  92 000c 01A9     		add	r1, sp, #4
  93 000e 0348     		ldr	r0, .L7
  94              	.LVL3:
  23:App/app.cpp   ****     HAL_UART_Transmit(&huart2, (uint8_t *)&ch, 1, HAL_MAX_DELAY);
  95              		.loc 1 23 22 view .LVU8
  96 0010 FFF7FEFF 		bl	HAL_UART_Transmit
  97              	.LVL4:
  24:App/app.cpp   ****     return ch;
  98              		.loc 1 24 5 is_stmt 1 view .LVU9
  25:App/app.cpp   **** }
  99              		.loc 1 25 1 is_stmt 0 view .LVU10
 100 0014 0198     		ldr	r0, [sp, #4]
 101 0016 03B0     		add	sp, sp, #12
 102              	.LCFI3:
 103              		.cfi_def_cfa_offset 4
 104              		@ sp needed
 105 0018 5DF804FB 		ldr	pc, [sp], #4
 106              	.L8:
 107              		.align	2
 108              	.L7:
 109 001c 00000000 		.word	huart2
 110              		.cfi_endproc
 111              	.LFE66:
 112              		.fnend
 114              		.section	.text.setup,"ax",%progbits
 115              		.align	1
 116              		.global	setup
 117              		.syntax unified
 118              		.thumb
 119              		.thumb_func
 121              	setup:
 122              		.fnstart
 123              	.LFB67:
  41:App/app.cpp   **** {
 124              		.loc 1 41 1 is_stmt 1 view -0
 125              		.cfi_startproc
 126              		@ args = 0, pretend = 0, frame = 0
 127              		@ frame_needed = 0, uses_anonymous_args = 0
 128 0000 10B5     		push	{r4, lr}
 129              		.save {r4, lr}
 130              	.LCFI4:
 131              		.cfi_def_cfa_offset 8
 132              		.cfi_offset 4, -8
 133              		.cfi_offset 14, -4
 134              		.pad #8
 135 0002 82B0     		sub	sp, sp, #8
 136              	.LCFI5:
ARM GAS  C:\Users\DARSTE~1\AppData\Local\Temp\ccY9Wffr.s 			page 5


 137              		.cfi_def_cfa_offset 16
  42:App/app.cpp   ****     HAL_Delay(1000);
 138              		.loc 1 42 5 view .LVU12
  42:App/app.cpp   ****     HAL_Delay(1000);
 139              		.loc 1 42 14 is_stmt 0 view .LVU13
 140 0004 4FF47A70 		mov	r0, #1000
 141 0008 FFF7FEFF 		bl	HAL_Delay
 142              	.LVL5:
  44:App/app.cpp   ****     led.init();
 143              		.loc 1 44 5 is_stmt 1 view .LVU14
  44:App/app.cpp   ****     led.init();
 144              		.loc 1 44 13 is_stmt 0 view .LVU15
 145 000c 0221     		movs	r1, #2
 146 000e 0848     		ldr	r0, .L11
 147 0010 FFF7FEFF 		bl	_ZN7WS2812B4initEh
 148              	.LVL6:
  45:App/app.cpp   ****     modbusClient.init();
 149              		.loc 1 45 5 is_stmt 1 view .LVU16
  45:App/app.cpp   ****     modbusClient.init();
 150              		.loc 1 45 22 is_stmt 0 view .LVU17
 151 0014 074C     		ldr	r4, .L11+4
 152 0016 2046     		mov	r0, r4
 153 0018 FFF7FEFF 		bl	_ZN9ModbusRTU4initEv
 154              	.LVL7:
  47:App/app.cpp   ****     modbusClient.request(0x01, 0x03, 0x00, 0x02);
 155              		.loc 1 47 5 is_stmt 1 view .LVU18
  47:App/app.cpp   ****     modbusClient.request(0x01, 0x03, 0x00, 0x02);
 156              		.loc 1 47 25 is_stmt 0 view .LVU19
 157 001c 0223     		movs	r3, #2
 158 001e 0093     		str	r3, [sp]
 159 0020 0023     		movs	r3, #0
 160 0022 0322     		movs	r2, #3
 161 0024 0121     		movs	r1, #1
 162 0026 2046     		mov	r0, r4
 163 0028 FFF7FEFF 		bl	_ZN9ModbusRTU7requestEhhtt
 164              	.LVL8:
  48:App/app.cpp   **** }
 165              		.loc 1 48 1 view .LVU20
 166 002c 02B0     		add	sp, sp, #8
 167              	.LCFI6:
 168              		.cfi_def_cfa_offset 8
 169              		@ sp needed
 170 002e 10BD     		pop	{r4, pc}
 171              	.L12:
 172              		.align	2
 173              	.L11:
 174 0030 00000000 		.word	led
 175 0034 00000000 		.word	modbusClient
 176              		.cfi_endproc
 177              	.LFE67:
 178              		.fnend
 180              		.section	.rodata.loop.str1.4,"aMS",%progbits,1
 181              		.align	2
 182              	.LC0:
 183 0000 25782000 		.ascii	"%x \000"
 184              		.section	.text.loop,"ax",%progbits
 185              		.align	1
ARM GAS  C:\Users\DARSTE~1\AppData\Local\Temp\ccY9Wffr.s 			page 6


 186              		.global	loop
 187              		.syntax unified
 188              		.thumb
 189              		.thumb_func
 191              	loop:
 192              		.fnstart
 193              	.LFB68:
  57:App/app.cpp   **** {
 194              		.loc 1 57 1 is_stmt 1 view -0
 195              		.cfi_startproc
 196              		@ args = 0, pretend = 0, frame = 0
 197              		@ frame_needed = 0, uses_anonymous_args = 0
 198 0000 10B5     		push	{r4, lr}
 199              		.save {r4, lr}
 200              	.LCFI7:
 201              		.cfi_def_cfa_offset 8
 202              		.cfi_offset 4, -8
 203              		.cfi_offset 14, -4
 204              		.pad #8
 205 0002 82B0     		sub	sp, sp, #8
 206              	.LCFI8:
 207              		.cfi_def_cfa_offset 16
  69:App/app.cpp   ****     modbusClient.request(0x01, MODBUS_RTU_READ_HOLDING_REGISTERS, 0x0002, 0x02);
 208              		.loc 1 69 5 view .LVU22
  69:App/app.cpp   ****     modbusClient.request(0x01, MODBUS_RTU_READ_HOLDING_REGISTERS, 0x0002, 0x02);
 209              		.loc 1 69 25 is_stmt 0 view .LVU23
 210 0004 0223     		movs	r3, #2
 211 0006 0093     		str	r3, [sp]
 212 0008 0322     		movs	r2, #3
 213 000a 0121     		movs	r1, #1
 214 000c 0D48     		ldr	r0, .L17
 215 000e FFF7FEFF 		bl	_ZN9ModbusRTU7requestEhhtt
 216              	.LVL9:
  70:App/app.cpp   ****     HAL_Delay(1000);
 217              		.loc 1 70 5 is_stmt 1 view .LVU24
  70:App/app.cpp   ****     HAL_Delay(1000);
 218              		.loc 1 70 14 is_stmt 0 view .LVU25
 219 0012 4FF47A70 		mov	r0, #1000
 220 0016 FFF7FEFF 		bl	HAL_Delay
 221              	.LVL10:
  71:App/app.cpp   ****     for (uint8_t i = 0; i < 9; i++)
 222              		.loc 1 71 5 is_stmt 1 view .LVU26
 223              	.LBB2:
  71:App/app.cpp   ****     for (uint8_t i = 0; i < 9; i++)
 224              		.loc 1 71 18 is_stmt 0 view .LVU27
 225 001a 0024     		movs	r4, #0
  71:App/app.cpp   ****     for (uint8_t i = 0; i < 9; i++)
 226              		.loc 1 71 5 view .LVU28
 227 001c 07E0     		b	.L14
 228              	.LVL11:
 229              	.L15:
  72:App/app.cpp   ****         printf("%x ", modbusClient.receiveBuffer[i]);
 230              		.loc 1 72 9 is_stmt 1 view .LVU29
  72:App/app.cpp   ****         printf("%x ", modbusClient.receiveBuffer[i]);
 231              		.loc 1 72 36 is_stmt 0 view .LVU30
 232 001e 094B     		ldr	r3, .L17
 233 0020 1B68     		ldr	r3, [r3]
ARM GAS  C:\Users\DARSTE~1\AppData\Local\Temp\ccY9Wffr.s 			page 7


  72:App/app.cpp   ****         printf("%x ", modbusClient.receiveBuffer[i]);
 234              		.loc 1 72 15 view .LVU31
 235 0022 195D     		ldrb	r1, [r3, r4]	@ zero_extendqisi2
 236 0024 0848     		ldr	r0, .L17+4
 237 0026 FFF7FEFF 		bl	printf
 238              	.LVL12:
  71:App/app.cpp   ****     for (uint8_t i = 0; i < 9; i++)
 239              		.loc 1 71 5 is_stmt 1 discriminator 3 view .LVU32
 240 002a 0134     		adds	r4, r4, #1
 241              	.LVL13:
  71:App/app.cpp   ****     for (uint8_t i = 0; i < 9; i++)
 242              		.loc 1 71 5 is_stmt 0 discriminator 3 view .LVU33
 243 002c E4B2     		uxtb	r4, r4
 244              	.LVL14:
 245              	.L14:
  71:App/app.cpp   ****     for (uint8_t i = 0; i < 9; i++)
 246              		.loc 1 71 27 is_stmt 1 discriminator 1 view .LVU34
 247 002e 082C     		cmp	r4, #8
 248 0030 F5D9     		bls	.L15
 249              	.LBE2:
  73:App/app.cpp   ****     printf("\n");
 250              		.loc 1 73 5 view .LVU35
  73:App/app.cpp   ****     printf("\n");
 251              		.loc 1 73 11 is_stmt 0 view .LVU36
 252 0032 0A20     		movs	r0, #10
 253 0034 FFF7FEFF 		bl	putchar
 254              	.LVL15:
  74:App/app.cpp   ****     HAL_Delay(1000);
 255              		.loc 1 74 5 is_stmt 1 view .LVU37
  74:App/app.cpp   ****     HAL_Delay(1000);
 256              		.loc 1 74 14 is_stmt 0 view .LVU38
 257 0038 4FF47A70 		mov	r0, #1000
 258 003c FFF7FEFF 		bl	HAL_Delay
 259              	.LVL16:
  75:App/app.cpp   **** }
 260              		.loc 1 75 1 view .LVU39
 261 0040 02B0     		add	sp, sp, #8
 262              	.LCFI9:
 263              		.cfi_def_cfa_offset 8
 264              		@ sp needed
 265 0042 10BD     		pop	{r4, pc}
 266              	.LVL17:
 267              	.L18:
  75:App/app.cpp   **** }
 268              		.loc 1 75 1 view .LVU40
 269              		.align	2
 270              	.L17:
 271 0044 00000000 		.word	modbusClient
 272 0048 00000000 		.word	.LC0
 273              		.cfi_endproc
 274              	.LFE68:
 275              		.fnend
 277              		.section	.text.HAL_TIM_PWM_PulseFinishedCallback,"ax",%progbits
 278              		.align	1
 279              		.global	HAL_TIM_PWM_PulseFinishedCallback
 280              		.syntax unified
 281              		.thumb
ARM GAS  C:\Users\DARSTE~1\AppData\Local\Temp\ccY9Wffr.s 			page 8


 282              		.thumb_func
 284              	HAL_TIM_PWM_PulseFinishedCallback:
 285              		.fnstart
 286              	.LVL18:
 287              	.LFB69:
  84:App/app.cpp   **** {
 288              		.loc 1 84 1 is_stmt 1 view -0
 289              		.cfi_startproc
 290              		@ args = 0, pretend = 0, frame = 0
 291              		@ frame_needed = 0, uses_anonymous_args = 0
  84:App/app.cpp   **** {
 292              		.loc 1 84 1 is_stmt 0 view .LVU42
 293 0000 08B5     		push	{r3, lr}
 294              		.save {r3, lr}
 295              	.LCFI10:
 296              		.cfi_def_cfa_offset 8
 297              		.cfi_offset 3, -8
 298              		.cfi_offset 14, -4
  85:App/app.cpp   ****     HAL_TIM_PWM_Stop_DMA(&htim1, TIM_CHANNEL_1);
 299              		.loc 1 85 5 is_stmt 1 view .LVU43
  85:App/app.cpp   ****     HAL_TIM_PWM_Stop_DMA(&htim1, TIM_CHANNEL_1);
 300              		.loc 1 85 25 is_stmt 0 view .LVU44
 301 0002 0021     		movs	r1, #0
 302 0004 0348     		ldr	r0, .L21
 303              	.LVL19:
  85:App/app.cpp   ****     HAL_TIM_PWM_Stop_DMA(&htim1, TIM_CHANNEL_1);
 304              		.loc 1 85 25 view .LVU45
 305 0006 FFF7FEFF 		bl	HAL_TIM_PWM_Stop_DMA
 306              	.LVL20:
  86:App/app.cpp   ****     led.UPDATE_STATE = WS2812B_UPDATE_FINISHED;
 307              		.loc 1 86 5 is_stmt 1 view .LVU46
  86:App/app.cpp   ****     led.UPDATE_STATE = WS2812B_UPDATE_FINISHED;
 308              		.loc 1 86 22 is_stmt 0 view .LVU47
 309 000a 034B     		ldr	r3, .L21+4
 310 000c 0122     		movs	r2, #1
 311 000e 1A70     		strb	r2, [r3]
 312              		.loc 1 87 1 view .LVU48
 313 0010 08BD     		pop	{r3, pc}
 314              	.L22:
 315 0012 00BF     		.align	2
 316              	.L21:
 317 0014 00000000 		.word	htim1
 318 0018 00000000 		.word	led
 319              		.cfi_endproc
 320              	.LFE69:
 321              		.fnend
 323              		.section	.text._GLOBAL__sub_I___io_putchar,"ax",%progbits
 324              		.align	1
 325              		.syntax unified
 326              		.thumb
 327              		.thumb_func
 329              	_GLOBAL__sub_I___io_putchar:
 330              		.fnstart
 331              	.LFB71:
 332              		.loc 1 87 1 is_stmt 1 view -0
 333              		.cfi_startproc
 334              		@ args = 0, pretend = 0, frame = 0
ARM GAS  C:\Users\DARSTE~1\AppData\Local\Temp\ccY9Wffr.s 			page 9


 335              		@ frame_needed = 0, uses_anonymous_args = 0
 336 0000 08B5     		push	{r3, lr}
 337              	.LCFI11:
 338              		.cfi_def_cfa_offset 8
 339              		.cfi_offset 3, -8
 340              		.cfi_offset 14, -4
 341              		.loc 1 87 1 is_stmt 0 view .LVU50
 342 0002 FFF7FEFF 		bl	_Z41__static_initialization_and_destruction_0v
 343              	.LVL21:
 344 0006 08BD     		pop	{r3, pc}
 345              		.cfi_endproc
 346              	.LFE71:
 347              		.cantunwind
 348              		.fnend
 350              		.section	.init_array,"aw",%init_array
 351              		.align	2
 352 0000 00000000 		.word	_GLOBAL__sub_I___io_putchar(target1)
 353              		.global	modbusClient
 354              		.section	.bss.modbusClient,"aw",%nobits
 355              		.align	2
 358              	modbusClient:
 359 0000 00000000 		.space	20
 359      00000000 
 359      00000000 
 359      00000000 
 359      00000000 
 360              		.global	led
 361              		.section	.bss.led,"aw",%nobits
 362              		.align	2
 365              	led:
 366 0000 00000000 		.space	36
 366      00000000 
 366      00000000 
 366      00000000 
 366      00000000 
 367              		.text
 368              	.Letext0:
 369              		.file 2 "C:/msys64/mingw64/arm-none-eabi/include/machine/_default_types.h"
 370              		.file 3 "C:/msys64/mingw64/arm-none-eabi/include/sys/_stdint.h"
 371              		.file 4 "Drivers/CMSIS/Device/ST/STM32F1xx/Include/stm32f103xb.h"
 372              		.file 5 "Drivers/CMSIS/Device/ST/STM32F1xx/Include/stm32f1xx.h"
 373              		.file 6 "Drivers/STM32F1xx_HAL_Driver/Inc/stm32f1xx_hal_def.h"
 374              		.file 7 "Drivers/STM32F1xx_HAL_Driver/Inc/stm32f1xx_hal_dma.h"
 375              		.file 8 "Drivers/STM32F1xx_HAL_Driver/Inc/stm32f1xx_hal_tim.h"
 376              		.file 9 "Drivers/STM32F1xx_HAL_Driver/Inc/stm32f1xx_hal_uart.h"
 377              		.file 10 "Drivers/STM32F1xx_HAL_Driver/Inc/stm32f1xx_hal.h"
 378              		.file 11 "App/WS2812B/ws2812b.h"
 379              		.file 12 "App/ModbusRTU/modbusRTU.h"
 380              		.file 13 "C:/msys64/mingw64/arm-none-eabi/include/stdio.h"
ARM GAS  C:\Users\DARSTE~1\AppData\Local\Temp\ccY9Wffr.s 			page 10


DEFINED SYMBOLS
                            *ABS*:00000000 app.cpp
C:\Users\DARSTE~1\AppData\Local\Temp\ccY9Wffr.s:19     .text._Z41__static_initialization_and_destruction_0v:00000000 $t
C:\Users\DARSTE~1\AppData\Local\Temp\ccY9Wffr.s:24     .text._Z41__static_initialization_and_destruction_0v:00000000 _Z41__static_initialization_and_destruction_0v
C:\Users\DARSTE~1\AppData\Local\Temp\ccY9Wffr.s:53     .text._Z41__static_initialization_and_destruction_0v:00000018 $d
C:\Users\DARSTE~1\AppData\Local\Temp\ccY9Wffr.s:365    .bss.led:00000000 led
C:\Users\DARSTE~1\AppData\Local\Temp\ccY9Wffr.s:358    .bss.modbusClient:00000000 modbusClient
.ARM.exidx.text._Z41__static_initialization_and_destruction_0v:00000000 $d
C:\Users\DARSTE~1\AppData\Local\Temp\ccY9Wffr.s:63     .text.__io_putchar:00000000 $t
C:\Users\DARSTE~1\AppData\Local\Temp\ccY9Wffr.s:69     .text.__io_putchar:00000000 __io_putchar
C:\Users\DARSTE~1\AppData\Local\Temp\ccY9Wffr.s:109    .text.__io_putchar:0000001c $d
     .ARM.exidx.text.__io_putchar:00000000 $d
C:\Users\DARSTE~1\AppData\Local\Temp\ccY9Wffr.s:115    .text.setup:00000000 $t
C:\Users\DARSTE~1\AppData\Local\Temp\ccY9Wffr.s:121    .text.setup:00000000 setup
C:\Users\DARSTE~1\AppData\Local\Temp\ccY9Wffr.s:174    .text.setup:00000030 $d
            .ARM.exidx.text.setup:00000000 $d
C:\Users\DARSTE~1\AppData\Local\Temp\ccY9Wffr.s:181    .rodata.loop.str1.4:00000000 $d
C:\Users\DARSTE~1\AppData\Local\Temp\ccY9Wffr.s:185    .text.loop:00000000 $t
C:\Users\DARSTE~1\AppData\Local\Temp\ccY9Wffr.s:191    .text.loop:00000000 loop
C:\Users\DARSTE~1\AppData\Local\Temp\ccY9Wffr.s:271    .text.loop:00000044 $d
             .ARM.exidx.text.loop:00000000 $d
C:\Users\DARSTE~1\AppData\Local\Temp\ccY9Wffr.s:278    .text.HAL_TIM_PWM_PulseFinishedCallback:00000000 $t
C:\Users\DARSTE~1\AppData\Local\Temp\ccY9Wffr.s:284    .text.HAL_TIM_PWM_PulseFinishedCallback:00000000 HAL_TIM_PWM_PulseFinishedCallback
C:\Users\DARSTE~1\AppData\Local\Temp\ccY9Wffr.s:317    .text.HAL_TIM_PWM_PulseFinishedCallback:00000014 $d
.ARM.extab.text.HAL_TIM_PWM_PulseFinishedCallback:00000000 $d
.ARM.exidx.text.HAL_TIM_PWM_PulseFinishedCallback:00000000 $d
C:\Users\DARSTE~1\AppData\Local\Temp\ccY9Wffr.s:324    .text._GLOBAL__sub_I___io_putchar:00000000 $t
C:\Users\DARSTE~1\AppData\Local\Temp\ccY9Wffr.s:329    .text._GLOBAL__sub_I___io_putchar:00000000 _GLOBAL__sub_I___io_putchar
.ARM.exidx.text._GLOBAL__sub_I___io_putchar:00000000 $d
C:\Users\DARSTE~1\AppData\Local\Temp\ccY9Wffr.s:351    .init_array:00000000 $d
C:\Users\DARSTE~1\AppData\Local\Temp\ccY9Wffr.s:355    .bss.modbusClient:00000000 $d
C:\Users\DARSTE~1\AppData\Local\Temp\ccY9Wffr.s:362    .bss.led:00000000 $d

UNDEFINED SYMBOLS
_ZN7WS2812BC1EP17TIM_HandleTypeDefmt
_ZN9ModbusRTUC1EP20__UART_HandleTypeDef
htim1
huart1
HAL_UART_Transmit
huart2
__aeabi_unwind_cpp_pr0
HAL_Delay
_ZN7WS2812B4initEh
_ZN9ModbusRTU4initEv
_ZN9ModbusRTU7requestEhhtt
printf
putchar
HAL_TIM_PWM_Stop_DMA
__aeabi_unwind_cpp_pr1
