ARM GAS  C:\Users\DARSTE~1\AppData\Local\Temp\ccD3pA8m.s 			page 1


   1              		.cpu cortex-m3
   2              		.arch armv7-m
   3              		.fpu softvfp
   4              		.eabi_attribute 20, 1
   5              		.eabi_attribute 21, 1
   6              		.eabi_attribute 23, 3
   7              		.eabi_attribute 24, 1
   8              		.eabi_attribute 25, 1
   9              		.eabi_attribute 26, 1
  10              		.eabi_attribute 30, 1
  11              		.eabi_attribute 34, 1
  12              		.eabi_attribute 18, 4
  13              		.file	"modbusRTU.cpp"
  14              		.text
  15              	.Ltext0:
  16              		.cfi_sections	.debug_frame
  17              		.file 1 "App/ModbusRTU/modbusRTU.cpp"
  18              		.section	.text._ZN9ModbusRTUC2EP20__UART_HandleTypeDef,"ax",%progbits
  19              		.align	1
  20              		.global	_ZN9ModbusRTUC2EP20__UART_HandleTypeDef
  21              		.syntax unified
  22              		.thumb
  23              		.thumb_func
  25              	_ZN9ModbusRTUC2EP20__UART_HandleTypeDef:
  26              		.fnstart
  27              	.LVL0:
  28              	.LFB75:
   1:App/ModbusRTU/modbusRTU.cpp **** #include "modbusRTU.h"
   2:App/ModbusRTU/modbusRTU.cpp **** #include "stm32Abstract.h"
   3:App/ModbusRTU/modbusRTU.cpp **** #include <stdlib.h>
   4:App/ModbusRTU/modbusRTU.cpp **** 
   5:App/ModbusRTU/modbusRTU.cpp **** 
   6:App/ModbusRTU/modbusRTU.cpp **** /*
   7:App/ModbusRTU/modbusRTU.cpp **** =====================================================================
   8:App/ModbusRTU/modbusRTU.cpp ****     PRIVATE FUNCTIONS
   9:App/ModbusRTU/modbusRTU.cpp **** =====================================================================
  10:App/ModbusRTU/modbusRTU.cpp **** */
  11:App/ModbusRTU/modbusRTU.cpp **** 
  12:App/ModbusRTU/modbusRTU.cpp **** 
  13:App/ModbusRTU/modbusRTU.cpp **** /*
  14:App/ModbusRTU/modbusRTU.cpp **** =====================================================================
  15:App/ModbusRTU/modbusRTU.cpp ****     CONSTRUCTORS
  16:App/ModbusRTU/modbusRTU.cpp **** =====================================================================
  17:App/ModbusRTU/modbusRTU.cpp **** */
  18:App/ModbusRTU/modbusRTU.cpp **** 
  19:App/ModbusRTU/modbusRTU.cpp **** ModbusRTU::ModbusRTU(UART_HandleTypeDef *hserial)
  29              		.loc 1 19 1 view -0
  30              		.cfi_startproc
  31              		@ args = 0, pretend = 0, frame = 0
  32              		@ frame_needed = 0, uses_anonymous_args = 0
  33              		@ link register save eliminated.
  34              	.LBB2:
  20:App/ModbusRTU/modbusRTU.cpp ****     : _serial(hserial)
  35              		.loc 1 20 7 is_stmt 0 view .LVU1
  36 0000 4160     		str	r1, [r0, #4]
  37              	.LBE2:
  21:App/ModbusRTU/modbusRTU.cpp **** {
ARM GAS  C:\Users\DARSTE~1\AppData\Local\Temp\ccD3pA8m.s 			page 2


  22:App/ModbusRTU/modbusRTU.cpp **** }
  38              		.loc 1 22 1 view .LVU2
  39 0002 7047     		bx	lr
  40              		.cfi_endproc
  41              	.LFE75:
  42              		.cantunwind
  43              		.fnend
  45              		.global	_ZN9ModbusRTUC1EP20__UART_HandleTypeDef
  46              		.thumb_set _ZN9ModbusRTUC1EP20__UART_HandleTypeDef,_ZN9ModbusRTUC2EP20__UART_HandleTypeDef
  47              		.section	.text._ZN9ModbusRTU4initEv,"ax",%progbits
  48              		.align	1
  49              		.global	_ZN9ModbusRTU4initEv
  50              		.syntax unified
  51              		.thumb
  52              		.thumb_func
  54              	_ZN9ModbusRTU4initEv:
  55              		.fnstart
  56              	.LVL1:
  57              	.LFB77:
  23:App/ModbusRTU/modbusRTU.cpp **** 
  24:App/ModbusRTU/modbusRTU.cpp **** 
  25:App/ModbusRTU/modbusRTU.cpp **** /*
  26:App/ModbusRTU/modbusRTU.cpp **** =====================================================================
  27:App/ModbusRTU/modbusRTU.cpp ****     METHODS
  28:App/ModbusRTU/modbusRTU.cpp **** =====================================================================
  29:App/ModbusRTU/modbusRTU.cpp **** */
  30:App/ModbusRTU/modbusRTU.cpp **** 
  31:App/ModbusRTU/modbusRTU.cpp **** void ModbusRTU::init()
  32:App/ModbusRTU/modbusRTU.cpp **** {
  58              		.loc 1 32 1 is_stmt 1 view -0
  59              		.cfi_startproc
  60              		@ args = 0, pretend = 0, frame = 0
  61              		@ frame_needed = 0, uses_anonymous_args = 0
  62              		.loc 1 32 1 is_stmt 0 view .LVU4
  63 0000 10B5     		push	{r4, lr}
  64              	.LCFI0:
  65              		.cfi_def_cfa_offset 8
  66              		.cfi_offset 4, -8
  67              		.cfi_offset 14, -4
  68 0002 0446     		mov	r4, r0
  33:App/ModbusRTU/modbusRTU.cpp ****     ModbusRTU::receiveBuffer = (uint8_t *)calloc(8, sizeof(uint8_t));
  69              		.loc 1 33 5 is_stmt 1 view .LVU5
  70              		.loc 1 33 49 is_stmt 0 view .LVU6
  71 0004 0121     		movs	r1, #1
  72 0006 0820     		movs	r0, #8
  73              	.LVL2:
  74              		.loc 1 33 49 view .LVU7
  75 0008 FFF7FEFF 		bl	calloc
  76              	.LVL3:
  77              		.loc 1 33 30 discriminator 1 view .LVU8
  78 000c 2060     		str	r0, [r4]
  34:App/ModbusRTU/modbusRTU.cpp **** }
  79              		.loc 1 34 1 view .LVU9
  80 000e 10BD     		pop	{r4, pc}
  81              		.loc 1 34 1 view .LVU10
  82              		.cfi_endproc
  83              	.LFE77:
ARM GAS  C:\Users\DARSTE~1\AppData\Local\Temp\ccD3pA8m.s 			page 3


  84              		.cantunwind
  85              		.fnend
  87              		.section	.text._ZN9ModbusRTU9appendCRCEPh,"ax",%progbits
  88              		.align	1
  89              		.global	_ZN9ModbusRTU9appendCRCEPh
  90              		.syntax unified
  91              		.thumb
  92              		.thumb_func
  94              	_ZN9ModbusRTU9appendCRCEPh:
  95              		.fnstart
  96              	.LVL4:
  97              	.LFB79:
  35:App/ModbusRTU/modbusRTU.cpp **** 
  36:App/ModbusRTU/modbusRTU.cpp **** void ModbusRTU::request(uint8_t slaveAddress, uint8_t funcCode, uint16_t startReg, uint16_t regCoun
  37:App/ModbusRTU/modbusRTU.cpp **** {
  38:App/ModbusRTU/modbusRTU.cpp ****     // Prepare send buffer:
  39:App/ModbusRTU/modbusRTU.cpp ****     _sendBuffer[0] = slaveAddress;
  40:App/ModbusRTU/modbusRTU.cpp ****     _sendBuffer[1] = funcCode;
  41:App/ModbusRTU/modbusRTU.cpp ****     _sendBuffer[2] = (startReg >> 8) & 0xFF;
  42:App/ModbusRTU/modbusRTU.cpp ****     _sendBuffer[3] = (startReg >> 0) & 0xFF;
  43:App/ModbusRTU/modbusRTU.cpp ****     _sendBuffer[4] = (regCount >> 8) & 0xFF;
  44:App/ModbusRTU/modbusRTU.cpp ****     _sendBuffer[5] = (regCount >> 0) & 0xFF;
  45:App/ModbusRTU/modbusRTU.cpp ****     // Calculate and append CRC:
  46:App/ModbusRTU/modbusRTU.cpp ****     uint16_t clientCRC = appendCRC(_sendBuffer);
  47:App/ModbusRTU/modbusRTU.cpp ****     _sendBuffer[6] = (uint8_t)((clientCRC >> 0) & 0xFF);
  48:App/ModbusRTU/modbusRTU.cpp ****     _sendBuffer[7] = (uint8_t)((clientCRC >> 8) & 0xFF);
  49:App/ModbusRTU/modbusRTU.cpp **** 
  50:App/ModbusRTU/modbusRTU.cpp ****     // Allocate memory for receive buffer:
  51:App/ModbusRTU/modbusRTU.cpp ****     _requestedBytes = (uint8_t)(regCount * 2);
  52:App/ModbusRTU/modbusRTU.cpp ****     free(ModbusRTU::receiveBuffer);
  53:App/ModbusRTU/modbusRTU.cpp ****     ModbusRTU::receiveBuffer = (uint8_t *)calloc(_requestedBytes + 5, sizeof(uint8_t));
  54:App/ModbusRTU/modbusRTU.cpp **** 
  55:App/ModbusRTU/modbusRTU.cpp ****     // Send to modbus server, then listen:
  56:App/ModbusRTU/modbusRTU.cpp ****     ModbusRTU::send();
  57:App/ModbusRTU/modbusRTU.cpp **** 
  58:App/ModbusRTU/modbusRTU.cpp ****     if (funcCode != MODBUS_RTU_READ_COIL &&
  59:App/ModbusRTU/modbusRTU.cpp ****         funcCode != MODBUS_RTU_READ_DISCRETE_INPUTS &&
  60:App/ModbusRTU/modbusRTU.cpp ****         funcCode != MODBUS_RTU_READ_HOLDING_REGISTERS &&
  61:App/ModbusRTU/modbusRTU.cpp ****         funcCode != MODBUS_RTU_READ_INPUT_REGISTERS)
  62:App/ModbusRTU/modbusRTU.cpp ****         return;
  63:App/ModbusRTU/modbusRTU.cpp **** 
  64:App/ModbusRTU/modbusRTU.cpp ****     ModbusRTU::receive();
  65:App/ModbusRTU/modbusRTU.cpp **** }
  66:App/ModbusRTU/modbusRTU.cpp **** 
  67:App/ModbusRTU/modbusRTU.cpp **** uint16_t ModbusRTU::appendCRC(uint8_t *data)
  68:App/ModbusRTU/modbusRTU.cpp **** {
  98              		.loc 1 68 1 is_stmt 1 view -0
  99              		.cfi_startproc
 100              		@ args = 0, pretend = 0, frame = 0
 101              		@ frame_needed = 0, uses_anonymous_args = 0
 102              		@ link register save eliminated.
  69:App/ModbusRTU/modbusRTU.cpp ****     uint16_t crc = 0xFFFF;
 103              		.loc 1 69 5 view .LVU12
  70:App/ModbusRTU/modbusRTU.cpp ****     for (uint16_t i = 0; i < 6; i++)
 104              		.loc 1 70 5 view .LVU13
 105              	.LBB3:
 106              		.loc 1 70 19 is_stmt 0 view .LVU14
ARM GAS  C:\Users\DARSTE~1\AppData\Local\Temp\ccD3pA8m.s 			page 4


 107 0000 4FF0000C 		mov	ip, #0
 108              	.LBE3:
  69:App/ModbusRTU/modbusRTU.cpp ****     uint16_t crc = 0xFFFF;
 109              		.loc 1 69 14 view .LVU15
 110 0004 4FF6FF70 		movw	r0, #65535
 111              	.LVL5:
 112              	.LBB8:
 113              		.loc 1 70 5 view .LVU16
 114 0008 10E0     		b	.L5
 115              	.LVL6:
 116              	.L7:
 117              	.LBB4:
 118              	.LBB5:
  71:App/ModbusRTU/modbusRTU.cpp ****     {
  72:App/ModbusRTU/modbusRTU.cpp ****         crc ^= data[i];
  73:App/ModbusRTU/modbusRTU.cpp ****         for (uint8_t j = 0; j < 8; j++) 
  74:App/ModbusRTU/modbusRTU.cpp ****         { 
  75:App/ModbusRTU/modbusRTU.cpp ****             if (crc & 0b1)
  76:App/ModbusRTU/modbusRTU.cpp ****             {
  77:App/ModbusRTU/modbusRTU.cpp ****                 crc >>= 1;
  78:App/ModbusRTU/modbusRTU.cpp ****                 crc ^= 0xA001; // Polynomial
  79:App/ModbusRTU/modbusRTU.cpp ****             }
  80:App/ModbusRTU/modbusRTU.cpp ****             else crc >>= 1;
 119              		.loc 1 80 18 is_stmt 1 view .LVU17
 120              		.loc 1 80 22 is_stmt 0 view .LVU18
 121 000a 4008     		lsrs	r0, r0, #1
 122              	.LVL7:
 123              	.L8:
  73:App/ModbusRTU/modbusRTU.cpp ****         { 
 124              		.loc 1 73 9 is_stmt 1 discriminator 2 view .LVU19
 125 000c 0133     		adds	r3, r3, #1
 126              	.LVL8:
  73:App/ModbusRTU/modbusRTU.cpp ****         { 
 127              		.loc 1 73 9 is_stmt 0 discriminator 2 view .LVU20
 128 000e DBB2     		uxtb	r3, r3
 129              	.LVL9:
 130              	.L6:
  73:App/ModbusRTU/modbusRTU.cpp ****         { 
 131              		.loc 1 73 31 is_stmt 1 discriminator 1 view .LVU21
 132 0010 072B     		cmp	r3, #7
 133 0012 07D8     		bhi	.L11
  75:App/ModbusRTU/modbusRTU.cpp ****             {
 134              		.loc 1 75 13 view .LVU22
 135 0014 10F0010F 		tst	r0, #1
 136 0018 F7D0     		beq	.L7
  77:App/ModbusRTU/modbusRTU.cpp ****                 crc ^= 0xA001; // Polynomial
 137              		.loc 1 77 17 view .LVU23
 138              	.LVL10:
  78:App/ModbusRTU/modbusRTU.cpp ****             }
 139              		.loc 1 78 17 view .LVU24
  78:App/ModbusRTU/modbusRTU.cpp ****             }
 140              		.loc 1 78 21 is_stmt 0 view .LVU25
 141 001a 4AF20102 		movw	r2, #40961
 142 001e 82EA5000 		eor	r0, r2, r0, lsr #1
 143              	.LVL11:
  78:App/ModbusRTU/modbusRTU.cpp ****             }
 144              		.loc 1 78 21 view .LVU26
ARM GAS  C:\Users\DARSTE~1\AppData\Local\Temp\ccD3pA8m.s 			page 5


 145 0022 F3E7     		b	.L8
 146              	.L11:
  78:App/ModbusRTU/modbusRTU.cpp ****             }
 147              		.loc 1 78 21 view .LVU27
 148              	.LBE5:
 149              	.LBE4:
  70:App/ModbusRTU/modbusRTU.cpp ****     {
 150              		.loc 1 70 5 is_stmt 1 discriminator 2 view .LVU28
 151 0024 0CF1010C 		add	ip, ip, #1
 152              	.LVL12:
  70:App/ModbusRTU/modbusRTU.cpp ****     {
 153              		.loc 1 70 5 is_stmt 0 discriminator 2 view .LVU29
 154 0028 1FFA8CFC 		uxth	ip, ip
 155              	.LVL13:
 156              	.L5:
  70:App/ModbusRTU/modbusRTU.cpp ****     {
 157              		.loc 1 70 28 is_stmt 1 discriminator 1 view .LVU30
 158 002c BCF1050F 		cmp	ip, #5
 159 0030 04D8     		bhi	.L12
 160              	.LBB7:
  72:App/ModbusRTU/modbusRTU.cpp ****         for (uint8_t j = 0; j < 8; j++) 
 161              		.loc 1 72 9 view .LVU31
  72:App/ModbusRTU/modbusRTU.cpp ****         for (uint8_t j = 0; j < 8; j++) 
 162              		.loc 1 72 22 is_stmt 0 view .LVU32
 163 0032 11F80C30 		ldrb	r3, [r1, ip]	@ zero_extendqisi2
  72:App/ModbusRTU/modbusRTU.cpp ****         for (uint8_t j = 0; j < 8; j++) 
 164              		.loc 1 72 13 view .LVU33
 165 0036 5840     		eors	r0, r0, r3
 166              	.LVL14:
  73:App/ModbusRTU/modbusRTU.cpp ****         { 
 167              		.loc 1 73 9 is_stmt 1 view .LVU34
 168              	.LBB6:
  73:App/ModbusRTU/modbusRTU.cpp ****         { 
 169              		.loc 1 73 22 is_stmt 0 view .LVU35
 170 0038 0023     		movs	r3, #0
  73:App/ModbusRTU/modbusRTU.cpp ****         { 
 171              		.loc 1 73 9 view .LVU36
 172 003a E9E7     		b	.L6
 173              	.LVL15:
 174              	.L12:
  73:App/ModbusRTU/modbusRTU.cpp ****         { 
 175              		.loc 1 73 9 view .LVU37
 176              	.LBE6:
 177              	.LBE7:
 178              	.LBE8:
  81:App/ModbusRTU/modbusRTU.cpp ****         }
  82:App/ModbusRTU/modbusRTU.cpp ****     }
  83:App/ModbusRTU/modbusRTU.cpp ****     return crc;
 179              		.loc 1 83 5 is_stmt 1 view .LVU38
  84:App/ModbusRTU/modbusRTU.cpp **** }
 180              		.loc 1 84 1 is_stmt 0 view .LVU39
 181 003c 7047     		bx	lr
 182              		.cfi_endproc
 183              	.LFE79:
 184              		.cantunwind
 185              		.fnend
 187              		.section	.text._ZN9ModbusRTU4sendEv,"ax",%progbits
ARM GAS  C:\Users\DARSTE~1\AppData\Local\Temp\ccD3pA8m.s 			page 6


 188              		.align	1
 189              		.global	_ZN9ModbusRTU4sendEv
 190              		.syntax unified
 191              		.thumb
 192              		.thumb_func
 194              	_ZN9ModbusRTU4sendEv:
 195              		.fnstart
 196              	.LVL16:
 197              	.LFB80:
  85:App/ModbusRTU/modbusRTU.cpp **** 
  86:App/ModbusRTU/modbusRTU.cpp **** void ModbusRTU::send()
  87:App/ModbusRTU/modbusRTU.cpp **** { HAL_UART_Transmit(_serial, _sendBuffer, 8, HAL_MAX_DELAY); }
 198              		.loc 1 87 1 is_stmt 1 view -0
 199              		.cfi_startproc
 200              		@ args = 0, pretend = 0, frame = 0
 201              		@ frame_needed = 0, uses_anonymous_args = 0
 202              		.loc 1 87 1 is_stmt 0 view .LVU41
 203 0000 08B5     		push	{r3, lr}
 204              		.save {r3, lr}
 205              	.LCFI1:
 206              		.cfi_def_cfa_offset 8
 207              		.cfi_offset 3, -8
 208              		.cfi_offset 14, -4
 209              		.loc 1 87 3 is_stmt 1 view .LVU42
 210              		.loc 1 87 20 is_stmt 0 view .LVU43
 211 0002 4FF0FF33 		mov	r3, #-1
 212 0006 0822     		movs	r2, #8
 213 0008 8118     		adds	r1, r0, r2
 214 000a 4068     		ldr	r0, [r0, #4]
 215              	.LVL17:
 216              		.loc 1 87 20 view .LVU44
 217 000c FFF7FEFF 		bl	HAL_UART_Transmit
 218              	.LVL18:
 219              		.loc 1 87 62 view .LVU45
 220 0010 08BD     		pop	{r3, pc}
 221              		.cfi_endproc
 222              	.LFE80:
 223              		.fnend
 225              		.section	.text._ZN9ModbusRTU7receiveEv,"ax",%progbits
 226              		.align	1
 227              		.global	_ZN9ModbusRTU7receiveEv
 228              		.syntax unified
 229              		.thumb
 230              		.thumb_func
 232              	_ZN9ModbusRTU7receiveEv:
 233              		.fnstart
 234              	.LVL19:
 235              	.LFB81:
  88:App/ModbusRTU/modbusRTU.cpp **** void ModbusRTU::receive()
  89:App/ModbusRTU/modbusRTU.cpp **** {
 236              		.loc 1 89 1 is_stmt 1 view -0
 237              		.cfi_startproc
 238              		@ args = 0, pretend = 0, frame = 16
 239              		@ frame_needed = 0, uses_anonymous_args = 0
 240              		.loc 1 89 1 is_stmt 0 view .LVU47
 241 0000 00B5     		push	{lr}
 242              		.save {lr}
ARM GAS  C:\Users\DARSTE~1\AppData\Local\Temp\ccD3pA8m.s 			page 7


 243              	.LCFI2:
 244              		.cfi_def_cfa_offset 4
 245              		.cfi_offset 14, -4
 246              		.pad #20
 247 0002 85B0     		sub	sp, sp, #20
 248              	.LCFI3:
 249              		.cfi_def_cfa_offset 24
  90:App/ModbusRTU/modbusRTU.cpp ****     HAL_UART_Receive(_serial, receiveBuffer, 7, 100);
 250              		.loc 1 90 5 is_stmt 1 view .LVU48
 251              		.loc 1 90 21 is_stmt 0 view .LVU49
 252 0004 6423     		movs	r3, #100
 253 0006 0722     		movs	r2, #7
 254 0008 0168     		ldr	r1, [r0]
 255 000a 4068     		ldr	r0, [r0, #4]
 256              	.LVL20:
 257              		.loc 1 90 21 view .LVU50
 258 000c FFF7FEFF 		bl	HAL_UART_Receive
 259              	.LVL21:
  91:App/ModbusRTU/modbusRTU.cpp ****     __STM32flipGPIO(PC13);
 260              		.loc 1 91 5 is_stmt 1 view .LVU51
 261 0010 084B     		ldr	r3, .L17
 262 0012 6A46     		mov	r2, sp
 263 0014 93E80300 		ldm	r3, {r0, r1}
 264 0018 82E80300 		stm	r2, {r0, r1}
 265 001c 04AB     		add	r3, sp, #16
 266 001e 03E90300 		stmdb	r3, {r0, r1}
 267 0022 4FF40051 		mov	r1, #8192
 268 0026 0448     		ldr	r0, .L17+4
 269 0028 FFF7FEFF 		bl	HAL_GPIO_TogglePin
 270              	.LVL22:
  92:App/ModbusRTU/modbusRTU.cpp **** }...
 271              		.loc 1 92 1 is_stmt 0 view .LVU52
 272 002c 05B0     		add	sp, sp, #20
 273              	.LCFI4:
 274              		.cfi_def_cfa_offset 4
 275              		@ sp needed
 276 002e 5DF804FB 		ldr	pc, [sp], #4
 277              	.L18:
 278 0032 00BF     		.align	2
 279              	.L17:
 280 0034 00000000 		.word	.LANCHOR0
 281 0038 00100140 		.word	1073811456
 282              		.cfi_endproc
 283              	.LFE81:
 284              		.fnend
 286              		.section	.text._ZN9ModbusRTU7requestEhhtt,"ax",%progbits
 287              		.align	1
 288              		.global	_ZN9ModbusRTU7requestEhhtt
 289              		.syntax unified
 290              		.thumb
 291              		.thumb_func
 293              	_ZN9ModbusRTU7requestEhhtt:
 294              		.fnstart
 295              	.LVL23:
 296              	.LFB78:
  37:App/ModbusRTU/modbusRTU.cpp **** {
 297              		.loc 1 37 1 is_stmt 1 view -0
ARM GAS  C:\Users\DARSTE~1\AppData\Local\Temp\ccD3pA8m.s 			page 8


 298              		.cfi_startproc
 299              		@ args = 4, pretend = 0, frame = 0
 300              		@ frame_needed = 0, uses_anonymous_args = 0
  37:App/ModbusRTU/modbusRTU.cpp **** {
 301              		.loc 1 37 1 is_stmt 0 view .LVU54
 302 0000 70B5     		push	{r4, r5, r6, lr}
 303              		.save {r4, r5, r6, lr}
 304              	.LCFI5:
 305              		.cfi_def_cfa_offset 16
 306              		.cfi_offset 4, -16
 307              		.cfi_offset 5, -12
 308              		.cfi_offset 6, -8
 309              		.cfi_offset 14, -4
 310 0002 0446     		mov	r4, r0
 311 0004 1546     		mov	r5, r2
 312 0006 BDF81060 		ldrh	r6, [sp, #16]
  39:App/ModbusRTU/modbusRTU.cpp ****     _sendBuffer[0] = slaveAddress;
 313              		.loc 1 39 5 is_stmt 1 view .LVU55
  39:App/ModbusRTU/modbusRTU.cpp ****     _sendBuffer[0] = slaveAddress;
 314              		.loc 1 39 20 is_stmt 0 view .LVU56
 315 000a 0172     		strb	r1, [r0, #8]
  40:App/ModbusRTU/modbusRTU.cpp ****     _sendBuffer[1] = funcCode;
 316              		.loc 1 40 5 is_stmt 1 view .LVU57
  40:App/ModbusRTU/modbusRTU.cpp ****     _sendBuffer[1] = funcCode;
 317              		.loc 1 40 20 is_stmt 0 view .LVU58
 318 000c 4272     		strb	r2, [r0, #9]
  41:App/ModbusRTU/modbusRTU.cpp ****     _sendBuffer[2] = (startReg >> 8) & 0xFF;
 319              		.loc 1 41 5 is_stmt 1 view .LVU59
  41:App/ModbusRTU/modbusRTU.cpp ****     _sendBuffer[2] = (startReg >> 8) & 0xFF;
 320              		.loc 1 41 32 is_stmt 0 view .LVU60
 321 000e 1A0A     		lsrs	r2, r3, #8
 322              	.LVL24:
  41:App/ModbusRTU/modbusRTU.cpp ****     _sendBuffer[2] = (startReg >> 8) & 0xFF;
 323              		.loc 1 41 20 view .LVU61
 324 0010 8272     		strb	r2, [r0, #10]
  42:App/ModbusRTU/modbusRTU.cpp ****     _sendBuffer[3] = (startReg >> 0) & 0xFF;
 325              		.loc 1 42 5 is_stmt 1 view .LVU62
  42:App/ModbusRTU/modbusRTU.cpp ****     _sendBuffer[3] = (startReg >> 0) & 0xFF;
 326              		.loc 1 42 20 is_stmt 0 view .LVU63
 327 0012 C372     		strb	r3, [r0, #11]
  43:App/ModbusRTU/modbusRTU.cpp ****     _sendBuffer[4] = (regCount >> 8) & 0xFF;
 328              		.loc 1 43 5 is_stmt 1 view .LVU64
  43:App/ModbusRTU/modbusRTU.cpp ****     _sendBuffer[4] = (regCount >> 8) & 0xFF;
 329              		.loc 1 43 32 is_stmt 0 view .LVU65
 330 0014 330A     		lsrs	r3, r6, #8
 331              	.LVL25:
  43:App/ModbusRTU/modbusRTU.cpp ****     _sendBuffer[4] = (regCount >> 8) & 0xFF;
 332              		.loc 1 43 20 view .LVU66
 333 0016 0373     		strb	r3, [r0, #12]
  44:App/ModbusRTU/modbusRTU.cpp ****     _sendBuffer[5] = (regCount >> 0) & 0xFF;
 334              		.loc 1 44 5 is_stmt 1 view .LVU67
  44:App/ModbusRTU/modbusRTU.cpp ****     _sendBuffer[5] = (regCount >> 0) & 0xFF;
 335              		.loc 1 44 20 is_stmt 0 view .LVU68
 336 0018 F6B2     		uxtb	r6, r6
 337 001a 4673     		strb	r6, [r0, #13]
  46:App/ModbusRTU/modbusRTU.cpp ****     uint16_t clientCRC = appendCRC(_sendBuffer);
 338              		.loc 1 46 5 is_stmt 1 view .LVU69
ARM GAS  C:\Users\DARSTE~1\AppData\Local\Temp\ccD3pA8m.s 			page 9


  46:App/ModbusRTU/modbusRTU.cpp ****     uint16_t clientCRC = appendCRC(_sendBuffer);
 339              		.loc 1 46 35 is_stmt 0 view .LVU70
 340 001c 00F10801 		add	r1, r0, #8
 341              	.LVL26:
  46:App/ModbusRTU/modbusRTU.cpp ****     uint16_t clientCRC = appendCRC(_sendBuffer);
 342              		.loc 1 46 35 view .LVU71
 343 0020 FFF7FEFF 		bl	_ZN9ModbusRTU9appendCRCEPh
 344              	.LVL27:
  47:App/ModbusRTU/modbusRTU.cpp ****     _sendBuffer[6] = (uint8_t)((clientCRC >> 0) & 0xFF);
 345              		.loc 1 47 5 is_stmt 1 view .LVU72
  47:App/ModbusRTU/modbusRTU.cpp ****     _sendBuffer[6] = (uint8_t)((clientCRC >> 0) & 0xFF);
 346              		.loc 1 47 20 is_stmt 0 view .LVU73
 347 0024 A073     		strb	r0, [r4, #14]
  48:App/ModbusRTU/modbusRTU.cpp ****     _sendBuffer[7] = (uint8_t)((clientCRC >> 8) & 0xFF);
 348              		.loc 1 48 5 is_stmt 1 view .LVU74
  48:App/ModbusRTU/modbusRTU.cpp ****     _sendBuffer[7] = (uint8_t)((clientCRC >> 8) & 0xFF);
 349              		.loc 1 48 43 is_stmt 0 view .LVU75
 350 0026 C0F30F20 		ubfx	r0, r0, #8, #16
 351              	.LVL28:
  48:App/ModbusRTU/modbusRTU.cpp ****     _sendBuffer[7] = (uint8_t)((clientCRC >> 8) & 0xFF);
 352              		.loc 1 48 20 view .LVU76
 353 002a E073     		strb	r0, [r4, #15]
  51:App/ModbusRTU/modbusRTU.cpp ****     _requestedBytes = (uint8_t)(regCount * 2);
 354              		.loc 1 51 5 is_stmt 1 view .LVU77
  51:App/ModbusRTU/modbusRTU.cpp ****     _requestedBytes = (uint8_t)(regCount * 2);
 355              		.loc 1 51 21 is_stmt 0 view .LVU78
 356 002c 7600     		lsls	r6, r6, #1
 357 002e 2674     		strb	r6, [r4, #16]
  52:App/ModbusRTU/modbusRTU.cpp ****     free(ModbusRTU::receiveBuffer);
 358              		.loc 1 52 5 is_stmt 1 view .LVU79
  52:App/ModbusRTU/modbusRTU.cpp ****     free(ModbusRTU::receiveBuffer);
 359              		.loc 1 52 9 is_stmt 0 view .LVU80
 360 0030 2068     		ldr	r0, [r4]
 361 0032 FFF7FEFF 		bl	free
 362              	.LVL29:
  53:App/ModbusRTU/modbusRTU.cpp ****     ModbusRTU::receiveBuffer = (uint8_t *)calloc(_requestedBytes + 5, sizeof(uint8_t));
 363              		.loc 1 53 5 is_stmt 1 view .LVU81
  53:App/ModbusRTU/modbusRTU.cpp ****     ModbusRTU::receiveBuffer = (uint8_t *)calloc(_requestedBytes + 5, sizeof(uint8_t));
 364              		.loc 1 53 50 is_stmt 0 view .LVU82
 365 0036 207C     		ldrb	r0, [r4, #16]	@ zero_extendqisi2
  53:App/ModbusRTU/modbusRTU.cpp ****     ModbusRTU::receiveBuffer = (uint8_t *)calloc(_requestedBytes + 5, sizeof(uint8_t));
 366              		.loc 1 53 49 view .LVU83
 367 0038 0121     		movs	r1, #1
 368 003a 0530     		adds	r0, r0, #5
 369 003c FFF7FEFF 		bl	calloc
 370              	.LVL30:
  53:App/ModbusRTU/modbusRTU.cpp ****     ModbusRTU::receiveBuffer = (uint8_t *)calloc(_requestedBytes + 5, sizeof(uint8_t));
 371              		.loc 1 53 30 discriminator 1 view .LVU84
 372 0040 2060     		str	r0, [r4]
  56:App/ModbusRTU/modbusRTU.cpp ****     ModbusRTU::send();
 373              		.loc 1 56 5 is_stmt 1 view .LVU85
  56:App/ModbusRTU/modbusRTU.cpp ****     ModbusRTU::send();
 374              		.loc 1 56 20 is_stmt 0 view .LVU86
 375 0042 2046     		mov	r0, r4
 376 0044 FFF7FEFF 		bl	_ZN9ModbusRTU4sendEv
 377              	.LVL31:
  58:App/ModbusRTU/modbusRTU.cpp ****     if (funcCode != MODBUS_RTU_READ_COIL &&
ARM GAS  C:\Users\DARSTE~1\AppData\Local\Temp\ccD3pA8m.s 			page 10


 378              		.loc 1 58 5 is_stmt 1 view .LVU87
  60:App/ModbusRTU/modbusRTU.cpp ****         funcCode != MODBUS_RTU_READ_HOLDING_REGISTERS &&
 379              		.loc 1 60 55 is_stmt 0 view .LVU88
 380 0048 013D     		subs	r5, r5, #1
 381              	.LVL32:
  60:App/ModbusRTU/modbusRTU.cpp ****         funcCode != MODBUS_RTU_READ_HOLDING_REGISTERS &&
 382              		.loc 1 60 55 view .LVU89
 383 004a EDB2     		uxtb	r5, r5
 384              	.LVL33:
  58:App/ModbusRTU/modbusRTU.cpp ****     if (funcCode != MODBUS_RTU_READ_COIL &&
 385              		.loc 1 58 5 view .LVU90
 386 004c 032D     		cmp	r5, #3
 387 004e 00D9     		bls	.L22
 388              	.L19:
  65:App/ModbusRTU/modbusRTU.cpp **** }
 389              		.loc 1 65 1 view .LVU91
 390 0050 70BD     		pop	{r4, r5, r6, pc}
 391              	.LVL34:
 392              	.L22:
  64:App/ModbusRTU/modbusRTU.cpp ****     ModbusRTU::receive();
 393              		.loc 1 64 5 is_stmt 1 view .LVU92
  64:App/ModbusRTU/modbusRTU.cpp ****     ModbusRTU::receive();
 394              		.loc 1 64 23 is_stmt 0 view .LVU93
 395 0052 2046     		mov	r0, r4
 396 0054 FFF7FEFF 		bl	_ZN9ModbusRTU7receiveEv
 397              	.LVL35:
 398 0058 FAE7     		b	.L19
 399              		.cfi_endproc
 400              	.LFE78:
 401              		.fnend
 403              		.section	.rodata
 404              		.align	2
 405              		.set	.LANCHOR0,. + 0
 406              	.LC0:
 407 0000 00100140 		.word	1073811456
 408 0004 0020     		.short	8192
 409 0006 0000     		.space	2
 410              		.text
 411              	.Letext0:
 412              		.file 2 "C:/msys64/mingw64/arm-none-eabi/include/machine/_default_types.h"
 413              		.file 3 "C:/msys64/mingw64/arm-none-eabi/include/sys/_stdint.h"
 414              		.file 4 "Drivers/CMSIS/Device/ST/STM32F1xx/Include/stm32f103xb.h"
 415              		.file 5 "C:/msys64/mingw64/lib/gcc/arm-none-eabi/13.3.0/include/stddef.h"
 416              		.file 6 "Drivers/STM32F1xx_HAL_Driver/Inc/stm32f1xx_hal_def.h"
 417              		.file 7 "Drivers/STM32F1xx_HAL_Driver/Inc/stm32f1xx_hal_dma.h"
 418              		.file 8 "Drivers/STM32F1xx_HAL_Driver/Inc/stm32f1xx_hal_uart.h"
 419              		.file 9 "App/ModbusRTU/modbusRTU.h"
 420              		.file 10 "C:/msys64/mingw64/arm-none-eabi/include/c++/13.3.0/cstdlib"
 421              		.file 11 "C:/msys64/mingw64/arm-none-eabi/include/c++/13.3.0/bits/std_abs.h"
 422              		.file 12 "C:/msys64/mingw64/arm-none-eabi/include/c++/13.3.0/arm-none-eabi/thumb/v7-m/nofp/bits/c+
 423              		.file 13 "C:/msys64/mingw64/arm-none-eabi/include/stdlib.h"
 424              		.file 14 "C:/msys64/mingw64/arm-none-eabi/include/c++/13.3.0/stdlib.h"
 425              		.file 15 "Drivers/STM32F1xx_HAL_Driver/Inc/stm32f1xx_hal_gpio.h"
ARM GAS  C:\Users\DARSTE~1\AppData\Local\Temp\ccD3pA8m.s 			page 11


DEFINED SYMBOLS
                            *ABS*:00000000 modbusRTU.cpp
C:\Users\DARSTE~1\AppData\Local\Temp\ccD3pA8m.s:19     .text._ZN9ModbusRTUC2EP20__UART_HandleTypeDef:00000000 $t
C:\Users\DARSTE~1\AppData\Local\Temp\ccD3pA8m.s:25     .text._ZN9ModbusRTUC2EP20__UART_HandleTypeDef:00000000 _ZN9ModbusRTUC2EP20__UART_HandleTypeDef
.ARM.exidx.text._ZN9ModbusRTUC2EP20__UART_HandleTypeDef:00000000 $d
C:\Users\DARSTE~1\AppData\Local\Temp\ccD3pA8m.s:25     .text._ZN9ModbusRTUC2EP20__UART_HandleTypeDef:00000000 _ZN9ModbusRTUC1EP20__UART_HandleTypeDef
C:\Users\DARSTE~1\AppData\Local\Temp\ccD3pA8m.s:48     .text._ZN9ModbusRTU4initEv:00000000 $t
C:\Users\DARSTE~1\AppData\Local\Temp\ccD3pA8m.s:54     .text._ZN9ModbusRTU4initEv:00000000 _ZN9ModbusRTU4initEv
.ARM.exidx.text._ZN9ModbusRTU4initEv:00000000 $d
C:\Users\DARSTE~1\AppData\Local\Temp\ccD3pA8m.s:88     .text._ZN9ModbusRTU9appendCRCEPh:00000000 $t
C:\Users\DARSTE~1\AppData\Local\Temp\ccD3pA8m.s:94     .text._ZN9ModbusRTU9appendCRCEPh:00000000 _ZN9ModbusRTU9appendCRCEPh
.ARM.exidx.text._ZN9ModbusRTU9appendCRCEPh:00000000 $d
C:\Users\DARSTE~1\AppData\Local\Temp\ccD3pA8m.s:188    .text._ZN9ModbusRTU4sendEv:00000000 $t
C:\Users\DARSTE~1\AppData\Local\Temp\ccD3pA8m.s:194    .text._ZN9ModbusRTU4sendEv:00000000 _ZN9ModbusRTU4sendEv
.ARM.extab.text._ZN9ModbusRTU4sendEv:00000000 $d
.ARM.exidx.text._ZN9ModbusRTU4sendEv:00000000 $d
C:\Users\DARSTE~1\AppData\Local\Temp\ccD3pA8m.s:226    .text._ZN9ModbusRTU7receiveEv:00000000 $t
C:\Users\DARSTE~1\AppData\Local\Temp\ccD3pA8m.s:232    .text._ZN9ModbusRTU7receiveEv:00000000 _ZN9ModbusRTU7receiveEv
C:\Users\DARSTE~1\AppData\Local\Temp\ccD3pA8m.s:280    .text._ZN9ModbusRTU7receiveEv:00000034 $d
.ARM.exidx.text._ZN9ModbusRTU7receiveEv:00000000 $d
C:\Users\DARSTE~1\AppData\Local\Temp\ccD3pA8m.s:287    .text._ZN9ModbusRTU7requestEhhtt:00000000 $t
C:\Users\DARSTE~1\AppData\Local\Temp\ccD3pA8m.s:293    .text._ZN9ModbusRTU7requestEhhtt:00000000 _ZN9ModbusRTU7requestEhhtt
.ARM.exidx.text._ZN9ModbusRTU7requestEhhtt:00000000 $d
C:\Users\DARSTE~1\AppData\Local\Temp\ccD3pA8m.s:404    .rodata:00000000 $d

UNDEFINED SYMBOLS
calloc
HAL_UART_Transmit
__aeabi_unwind_cpp_pr1
HAL_UART_Receive
HAL_GPIO_TogglePin
__aeabi_unwind_cpp_pr0
free
