ARM GAS  C:\Users\DARSTE~1\AppData\Local\Temp\ccKwuhjC.s 			page 1


   1              		.cpu cortex-m3
   2              		.arch armv7-m
   3              		.fpu softvfp
   4              		.eabi_attribute 20, 1
   5              		.eabi_attribute 21, 1
   6              		.eabi_attribute 23, 3
   7              		.eabi_attribute 24, 1
   8              		.eabi_attribute 25, 1
   9              		.eabi_attribute 26, 1
  10              		.eabi_attribute 30, 1
  11              		.eabi_attribute 34, 1
  12              		.eabi_attribute 18, 4
  13              		.file	"ws2812b.cpp"
  14              		.text
  15              	.Ltext0:
  16              		.cfi_sections	.debug_frame
  17              		.file 1 "App/WS2812B/ws2812b.cpp"
  18              		.section	.text._ZN7WS2812BC2EP17TIM_HandleTypeDefmt,"ax",%progbits
  19              		.align	1
  20              		.global	_ZN7WS2812BC2EP17TIM_HandleTypeDefmt
  21              		.syntax unified
  22              		.thumb
  23              		.thumb_func
  25              	_ZN7WS2812BC2EP17TIM_HandleTypeDefmt:
  26              		.fnstart
  27              	.LVL0:
  28              	.LFB75:
   1:App/WS2812B/ws2812b.cpp **** #include "ws2812b.h"
   2:App/WS2812B/ws2812b.cpp **** #include <stdlib.h>
   3:App/WS2812B/ws2812b.cpp **** #include <string.h>
   4:App/WS2812B/ws2812b.cpp **** 
   5:App/WS2812B/ws2812b.cpp **** /*
   6:App/WS2812B/ws2812b.cpp **** =====================================================================
   7:App/WS2812B/ws2812b.cpp ****     PRIVATE FUNCTIONS
   8:App/WS2812B/ws2812b.cpp **** =====================================================================
   9:App/WS2812B/ws2812b.cpp **** */
  10:App/WS2812B/ws2812b.cpp **** 
  11:App/WS2812B/ws2812b.cpp **** 
  12:App/WS2812B/ws2812b.cpp **** /*
  13:App/WS2812B/ws2812b.cpp **** =====================================================================
  14:App/WS2812B/ws2812b.cpp ****     CONSTRUCTORS
  15:App/WS2812B/ws2812b.cpp **** =====================================================================
  16:App/WS2812B/ws2812b.cpp **** */
  17:App/WS2812B/ws2812b.cpp **** 
  18:App/WS2812B/ws2812b.cpp **** WS2812B::WS2812B(TIM_HandleTypeDef *PWMgenerator, uint32_t channel, uint16_t numLed)
  29              		.loc 1 18 1 view -0
  30              		.cfi_startproc
  31              		@ args = 0, pretend = 0, frame = 0
  32              		@ frame_needed = 0, uses_anonymous_args = 0
  33              		@ link register save eliminated.
  34              	.LBB2:
  19:App/WS2812B/ws2812b.cpp ****     : _PWMgenerator(PWMgenerator), _channel(channel), _ledsCount(numLed)
  35              		.loc 1 19 7 is_stmt 0 view .LVU1
  36 0000 4160     		str	r1, [r0, #4]
  37              		.loc 1 19 55 view .LVU2
  38 0002 0381     		strh	r3, [r0, #8]	@ movhi
  39              		.loc 1 19 36 view .LVU3
ARM GAS  C:\Users\DARSTE~1\AppData\Local\Temp\ccKwuhjC.s 			page 2


  40 0004 C260     		str	r2, [r0, #12]
  41              	.LBE2:
  20:App/WS2812B/ws2812b.cpp **** {
  21:App/WS2812B/ws2812b.cpp **** }
  42              		.loc 1 21 1 view .LVU4
  43 0006 7047     		bx	lr
  44              		.cfi_endproc
  45              	.LFE75:
  46              		.cantunwind
  47              		.fnend
  49              		.global	_ZN7WS2812BC1EP17TIM_HandleTypeDefmt
  50              		.thumb_set _ZN7WS2812BC1EP17TIM_HandleTypeDefmt,_ZN7WS2812BC2EP17TIM_HandleTypeDefmt
  51              		.section	.text._ZN7WS2812B4initE14WS2812B_STATUS,"ax",%progbits
  52              		.align	1
  53              		.global	_ZN7WS2812B4initE14WS2812B_STATUS
  54              		.syntax unified
  55              		.thumb
  56              		.thumb_func
  58              	_ZN7WS2812B4initE14WS2812B_STATUS:
  59              		.fnstart
  60              	.LVL1:
  61              	.LFB77:
  22:App/WS2812B/ws2812b.cpp **** 
  23:App/WS2812B/ws2812b.cpp **** 
  24:App/WS2812B/ws2812b.cpp **** /*
  25:App/WS2812B/ws2812b.cpp **** =====================================================================
  26:App/WS2812B/ws2812b.cpp ****     METHODS
  27:App/WS2812B/ws2812b.cpp **** =====================================================================
  28:App/WS2812B/ws2812b.cpp **** */
  29:App/WS2812B/ws2812b.cpp **** 
  30:App/WS2812B/ws2812b.cpp **** void WS2812B::init(WS2812B_STATUS DMAincrement)
  31:App/WS2812B/ws2812b.cpp **** {
  62              		.loc 1 31 1 is_stmt 1 view -0
  63              		.cfi_startproc
  64              		@ args = 0, pretend = 0, frame = 0
  65              		@ frame_needed = 0, uses_anonymous_args = 0
  66              		.loc 1 31 1 is_stmt 0 view .LVU6
  67 0000 70B5     		push	{r4, r5, r6, lr}
  68              	.LCFI0:
  69              		.cfi_def_cfa_offset 16
  70              		.cfi_offset 4, -16
  71              		.cfi_offset 5, -12
  72              		.cfi_offset 6, -8
  73              		.cfi_offset 14, -4
  74 0002 0446     		mov	r4, r0
  75 0004 0D46     		mov	r5, r1
  32:App/WS2812B/ws2812b.cpp ****     _colorData = (uint32_t *)calloc(_ledsCount, sizeof(uint32_t));
  76              		.loc 1 32 5 is_stmt 1 view .LVU7
  77              		.loc 1 32 37 is_stmt 0 view .LVU8
  78 0006 0689     		ldrh	r6, [r0, #8]
  79              		.loc 1 32 36 view .LVU9
  80 0008 0421     		movs	r1, #4
  81              	.LVL2:
  82              		.loc 1 32 36 view .LVU10
  83 000a 3046     		mov	r0, r6
  84              	.LVL3:
  85              		.loc 1 32 36 view .LVU11
ARM GAS  C:\Users\DARSTE~1\AppData\Local\Temp\ccKwuhjC.s 			page 3


  86 000c FFF7FEFF 		bl	calloc
  87              	.LVL4:
  88              		.loc 1 32 16 discriminator 1 view .LVU12
  89 0010 A061     		str	r0, [r4, #24]
  33:App/WS2812B/ws2812b.cpp ****     _targetColorData = (uint32_t *)calloc(_ledsCount, sizeof(uint32_t));
  90              		.loc 1 33 5 is_stmt 1 view .LVU13
  91              		.loc 1 33 42 is_stmt 0 view .LVU14
  92 0012 0421     		movs	r1, #4
  93 0014 3046     		mov	r0, r6
  94 0016 FFF7FEFF 		bl	calloc
  95              	.LVL5:
  96              		.loc 1 33 22 discriminator 1 view .LVU15
  97 001a E061     		str	r0, [r4, #28]
  34:App/WS2812B/ws2812b.cpp ****     _buffer = (uint32_t *)calloc(
  98              		.loc 1 34 5 is_stmt 1 view .LVU16
  35:App/WS2812B/ws2812b.cpp ****         _ledsCount * 24 + WS2812B_RESET_CODE_PADDING, sizeof(uint32_t)
  99              		.loc 1 35 20 is_stmt 0 view .LVU17
 100 001c 06EB4606 		add	r6, r6, r6, lsl #1
 101 0020 F000     		lsls	r0, r6, #3
  34:App/WS2812B/ws2812b.cpp ****     _buffer = (uint32_t *)calloc(
 102              		.loc 1 34 33 view .LVU18
 103 0022 0421     		movs	r1, #4
 104 0024 2830     		adds	r0, r0, #40
 105 0026 FFF7FEFF 		bl	calloc
 106              	.LVL6:
  34:App/WS2812B/ws2812b.cpp ****     _buffer = (uint32_t *)calloc(
 107              		.loc 1 34 13 discriminator 1 view .LVU19
 108 002a 2063     		str	r0, [r4, #48]
  36:App/WS2812B/ws2812b.cpp ****     );
  37:App/WS2812B/ws2812b.cpp ****     _BIT_1_HIGH = 2 * _PWMgenerator->Instance->ARR / 3 + 1;
 109              		.loc 1 37 5 is_stmt 1 view .LVU20
 110              		.loc 1 37 23 is_stmt 0 view .LVU21
 111 002c 6168     		ldr	r1, [r4, #4]
 112              		.loc 1 37 38 view .LVU22
 113 002e 0B68     		ldr	r3, [r1]
 114              		.loc 1 37 48 view .LVU23
 115 0030 DB6A     		ldr	r3, [r3, #44]
 116              		.loc 1 37 21 view .LVU24
 117 0032 5B00     		lsls	r3, r3, #1
 118              		.loc 1 37 52 view .LVU25
 119 0034 094A     		ldr	r2, .L4
 120 0036 A2FB0303 		umull	r0, r3, r2, r3
 121 003a 5B08     		lsrs	r3, r3, #1
 122              		.loc 1 37 56 view .LVU26
 123 003c 0133     		adds	r3, r3, #1
 124              		.loc 1 37 17 view .LVU27
 125 003e 2361     		str	r3, [r4, #16]
  38:App/WS2812B/ws2812b.cpp ****     _BIT_0_HIGH = _PWMgenerator->Instance->ARR / 3 + 1;
 126              		.loc 1 38 5 is_stmt 1 view .LVU28
 127              		.loc 1 38 34 is_stmt 0 view .LVU29
 128 0040 0B68     		ldr	r3, [r1]
 129              		.loc 1 38 44 view .LVU30
 130 0042 DB6A     		ldr	r3, [r3, #44]
 131              		.loc 1 38 48 view .LVU31
 132 0044 A2FB0323 		umull	r2, r3, r2, r3
 133 0048 5B08     		lsrs	r3, r3, #1
 134              		.loc 1 38 52 view .LVU32
ARM GAS  C:\Users\DARSTE~1\AppData\Local\Temp\ccKwuhjC.s 			page 4


 135 004a 0133     		adds	r3, r3, #1
 136              		.loc 1 38 17 view .LVU33
 137 004c 6361     		str	r3, [r4, #20]
  39:App/WS2812B/ws2812b.cpp ****     _bufferDataMultiplier = 24 * DMAincrement;
 138              		.loc 1 39 5 is_stmt 1 view .LVU34
 139              		.loc 1 39 27 is_stmt 0 view .LVU35
 140 004e 05EB4505 		add	r5, r5, r5, lsl #1
 141              	.LVL7:
 142              		.loc 1 39 27 view .LVU36
 143 0052 ED00     		lsls	r5, r5, #3
 144 0054 84F83450 		strb	r5, [r4, #52]
  40:App/WS2812B/ws2812b.cpp **** }
 145              		.loc 1 40 1 view .LVU37
 146 0058 70BD     		pop	{r4, r5, r6, pc}
 147              	.LVL8:
 148              	.L5:
 149              		.loc 1 40 1 view .LVU38
 150 005a 00BF     		.align	2
 151              	.L4:
 152 005c ABAAAAAA 		.word	-1431655765
 153              		.cfi_endproc
 154              	.LFE77:
 155              		.cantunwind
 156              		.fnend
 158              		.section	.text._ZN7WS2812B10solidColorEmtt,"ax",%progbits
 159              		.align	1
 160              		.global	_ZN7WS2812B10solidColorEmtt
 161              		.syntax unified
 162              		.thumb
 163              		.thumb_func
 165              	_ZN7WS2812B10solidColorEmtt:
 166              		.fnstart
 167              	.LVL9:
 168              	.LFB78:
  41:App/WS2812B/ws2812b.cpp **** 
  42:App/WS2812B/ws2812b.cpp **** void WS2812B::solidColor(uint32_t color, uint16_t start, uint16_t end)
  43:App/WS2812B/ws2812b.cpp **** {
 169              		.loc 1 43 1 is_stmt 1 view -0
 170              		.cfi_startproc
 171              		@ args = 0, pretend = 0, frame = 0
 172              		@ frame_needed = 0, uses_anonymous_args = 0
 173              		@ link register save eliminated.
  44:App/WS2812B/ws2812b.cpp ****     // color = WS2812B::toGRB(color);
  45:App/WS2812B/ws2812b.cpp ****     for (uint16_t ledIterate = start; ledIterate <= end; ledIterate++)
 174              		.loc 1 45 5 view .LVU40
 175              	.LBB3:
 176              		.loc 1 45 5 is_stmt 0 view .LVU41
 177 0000 05E0     		b	.L7
 178              	.LVL10:
 179              	.L8:
  46:App/WS2812B/ws2812b.cpp ****         _targetColorData[ledIterate] = color;
 180              		.loc 1 46 9 is_stmt 1 view .LVU42
 181              		.loc 1 46 38 is_stmt 0 view .LVU43
 182 0002 D0F81CC0 		ldr	ip, [r0, #28]
 183 0006 4CF82210 		str	r1, [ip, r2, lsl #2]
  45:App/WS2812B/ws2812b.cpp ****         _targetColorData[ledIterate] = color;
 184              		.loc 1 45 5 is_stmt 1 discriminator 3 view .LVU44
ARM GAS  C:\Users\DARSTE~1\AppData\Local\Temp\ccKwuhjC.s 			page 5


 185 000a 0132     		adds	r2, r2, #1
 186              	.LVL11:
  45:App/WS2812B/ws2812b.cpp ****         _targetColorData[ledIterate] = color;
 187              		.loc 1 45 5 is_stmt 0 discriminator 3 view .LVU45
 188 000c 92B2     		uxth	r2, r2
 189              	.LVL12:
 190              	.L7:
  45:App/WS2812B/ws2812b.cpp ****         _targetColorData[ledIterate] = color;
 191              		.loc 1 45 50 is_stmt 1 discriminator 1 view .LVU46
 192 000e 9A42     		cmp	r2, r3
 193 0010 F7D9     		bls	.L8
  45:App/WS2812B/ws2812b.cpp ****         _targetColorData[ledIterate] = color;
 194              		.loc 1 45 50 is_stmt 0 discriminator 1 view .LVU47
 195              	.LBE3:
  47:App/WS2812B/ws2812b.cpp **** }
 196              		.loc 1 47 1 view .LVU48
 197 0012 7047     		bx	lr
 198              		.cfi_endproc
 199              	.LFE78:
 200              		.cantunwind
 201              		.fnend
 203              		.section	.text._ZN7WS2812B6rotateE14WS2812B_STATUS,"ax",%progbits
 204              		.align	1
 205              		.global	_ZN7WS2812B6rotateE14WS2812B_STATUS
 206              		.syntax unified
 207              		.thumb
 208              		.thumb_func
 210              	_ZN7WS2812B6rotateE14WS2812B_STATUS:
 211              		.fnstart
 212              	.LVL13:
 213              	.LFB80:
  48:App/WS2812B/ws2812b.cpp **** 
  49:App/WS2812B/ws2812b.cpp **** void WS2812B::gradient2Colors(uint32_t startColor, uint16_t start, uint32_t endColor, uint16_t end)
  50:App/WS2812B/ws2812b.cpp **** {
  51:App/WS2812B/ws2812b.cpp ****     float stepRed = (float)WS2812B::extractRed(startColor) - (float)WS2812B::extractRed(endColor);
  52:App/WS2812B/ws2812b.cpp ****     float stepGreen = (float)WS2812B::extractGreen(startColor) - (float)WS2812B::extractGreen(endCo
  53:App/WS2812B/ws2812b.cpp ****     float stepBlue = (float)WS2812B::extractBlue(startColor) - (float)WS2812B::extractBlue(endColor
  54:App/WS2812B/ws2812b.cpp ****     stepRed = stepRed / (float)(end - start);
  55:App/WS2812B/ws2812b.cpp ****     stepGreen = stepGreen / (float)(end - start);
  56:App/WS2812B/ws2812b.cpp ****     stepBlue = stepBlue / (float)(end - start);
  57:App/WS2812B/ws2812b.cpp **** 
  58:App/WS2812B/ws2812b.cpp ****     uint16_t colorIterate = 0;
  59:App/WS2812B/ws2812b.cpp ****     while (start <= end)
  60:App/WS2812B/ws2812b.cpp ****     {
  61:App/WS2812B/ws2812b.cpp ****         _targetColorData[start] = WS2812B::combineRGB(
  62:App/WS2812B/ws2812b.cpp ****             WS2812B::extractRed(startColor) - colorIterate * stepRed,
  63:App/WS2812B/ws2812b.cpp ****             WS2812B::extractGreen(startColor) - colorIterate * stepGreen,
  64:App/WS2812B/ws2812b.cpp ****             WS2812B::extractBlue(startColor) - colorIterate * stepBlue
  65:App/WS2812B/ws2812b.cpp ****         );
  66:App/WS2812B/ws2812b.cpp ****         _targetColorData[end] = WS2812B::combineRGB(
  67:App/WS2812B/ws2812b.cpp ****             WS2812B::extractRed(endColor) + colorIterate * stepRed,
  68:App/WS2812B/ws2812b.cpp ****             WS2812B::extractGreen(endColor) + colorIterate * stepGreen,
  69:App/WS2812B/ws2812b.cpp ****             WS2812B::extractBlue(endColor) + colorIterate * stepBlue
  70:App/WS2812B/ws2812b.cpp ****         );
  71:App/WS2812B/ws2812b.cpp ****         colorIterate++; start++; end--;
  72:App/WS2812B/ws2812b.cpp ****     }
  73:App/WS2812B/ws2812b.cpp **** }
ARM GAS  C:\Users\DARSTE~1\AppData\Local\Temp\ccKwuhjC.s 			page 6


  74:App/WS2812B/ws2812b.cpp **** 
  75:App/WS2812B/ws2812b.cpp **** void WS2812B::rotate(WS2812B_STATUS direction)
  76:App/WS2812B/ws2812b.cpp **** {
 214              		.loc 1 76 1 is_stmt 1 view -0
 215              		.cfi_startproc
 216              		@ args = 0, pretend = 0, frame = 0
 217              		@ frame_needed = 0, uses_anonymous_args = 0
 218              		@ link register save eliminated.
 219              		.loc 1 76 1 is_stmt 0 view .LVU50
 220 0000 10B4     		push	{r4}
 221              	.LCFI1:
 222              		.cfi_def_cfa_offset 4
 223              		.cfi_offset 4, -4
  77:App/WS2812B/ws2812b.cpp ****     if (direction == WS2812B_ROTATE_TO_TAIL)
 224              		.loc 1 77 5 is_stmt 1 view .LVU51
 225              	.LBB4:
 226 0002 0129     		cmp	r1, #1
 227 0004 02D0     		beq	.L18
 228              	.LBE4:
  78:App/WS2812B/ws2812b.cpp ****     for (uint16_t ledIterate = _ledsCount - 1;
  79:App/WS2812B/ws2812b.cpp ****         ledIterate > 0; ledIterate--)
  80:App/WS2812B/ws2812b.cpp ****     {
  81:App/WS2812B/ws2812b.cpp ****             _targetColorData[0] = _targetColorData[_ledsCount - 1];
  82:App/WS2812B/ws2812b.cpp ****             _targetColorData[ledIterate] = _targetColorData[ledIterate - 1];
  83:App/WS2812B/ws2812b.cpp ****     }
  84:App/WS2812B/ws2812b.cpp ****     else if (direction == WS2812B_ROTATE_TO_HEAD)
 229              		.loc 1 84 10 view .LVU52
 230              	.LBB10:
 231              	.LBB5:
 232 0006 B9B9     		cbnz	r1, .L9
 233              	.LBB6:
  85:App/WS2812B/ws2812b.cpp ****     for (uint16_t ledIterate = 0;
 234              		.loc 1 85 19 is_stmt 0 view .LVU53
 235 0008 0022     		movs	r2, #0
 236 000a 25E0     		b	.L14
 237              	.L18:
 238              	.LBE6:
 239              	.LBE5:
 240              	.LBE10:
  78:App/WS2812B/ws2812b.cpp ****     for (uint16_t ledIterate = _ledsCount - 1;
 241              		.loc 1 78 5 is_stmt 1 view .LVU54
 242              	.LBB11:
 243              	.LBB8:
  78:App/WS2812B/ws2812b.cpp ****     for (uint16_t ledIterate = _ledsCount - 1;
 244              		.loc 1 78 32 is_stmt 0 view .LVU55
 245 000c 0389     		ldrh	r3, [r0, #8]
  78:App/WS2812B/ws2812b.cpp ****     for (uint16_t ledIterate = _ledsCount - 1;
 246              		.loc 1 78 19 view .LVU56
 247 000e 013B     		subs	r3, r3, #1
 248 0010 9BB2     		uxth	r3, r3
 249              	.LVL14:
  78:App/WS2812B/ws2812b.cpp ****     for (uint16_t ledIterate = _ledsCount - 1;
 250              		.loc 1 78 5 view .LVU57
 251 0012 0FE0     		b	.L11
 252              	.LVL15:
 253              	.L12:
  81:App/WS2812B/ws2812b.cpp ****             _targetColorData[ledIterate] = _targetColorData[ledIterate - 1];
ARM GAS  C:\Users\DARSTE~1\AppData\Local\Temp\ccKwuhjC.s 			page 7


 254              		.loc 1 81 13 is_stmt 1 view .LVU58
  81:App/WS2812B/ws2812b.cpp ****             _targetColorData[ledIterate] = _targetColorData[ledIterate - 1];
 255              		.loc 1 81 35 is_stmt 0 view .LVU59
 256 0014 C469     		ldr	r4, [r0, #28]
  81:App/WS2812B/ws2812b.cpp ****             _targetColorData[ledIterate] = _targetColorData[ledIterate - 1];
 257              		.loc 1 81 52 view .LVU60
 258 0016 0189     		ldrh	r1, [r0, #8]
  81:App/WS2812B/ws2812b.cpp ****             _targetColorData[ledIterate] = _targetColorData[ledIterate - 1];
 259              		.loc 1 81 66 view .LVU61
 260 0018 6FF04042 		mvn	r2, #-1073741824
 261 001c 1144     		add	r1, r1, r2
 262 001e 54F82110 		ldr	r1, [r4, r1, lsl #2]
  81:App/WS2812B/ws2812b.cpp ****             _targetColorData[ledIterate] = _targetColorData[ledIterate - 1];
 263              		.loc 1 81 33 view .LVU62
 264 0022 2160     		str	r1, [r4]
  82:App/WS2812B/ws2812b.cpp ****     }
 265              		.loc 1 82 13 is_stmt 1 view .LVU63
  82:App/WS2812B/ws2812b.cpp ****     }
 266              		.loc 1 82 44 is_stmt 0 view .LVU64
 267 0024 C169     		ldr	r1, [r0, #28]
  82:App/WS2812B/ws2812b.cpp ****     }
 268              		.loc 1 82 75 view .LVU65
 269 0026 1A44     		add	r2, r2, r3
 270 0028 51F82220 		ldr	r2, [r1, r2, lsl #2]
  82:App/WS2812B/ws2812b.cpp ****     }
 271              		.loc 1 82 42 view .LVU66
 272 002c 41F82320 		str	r2, [r1, r3, lsl #2]
  78:App/WS2812B/ws2812b.cpp ****         ledIterate > 0; ledIterate--)
 273              		.loc 1 78 5 is_stmt 1 view .LVU67
 274 0030 013B     		subs	r3, r3, #1
 275              	.LVL16:
  78:App/WS2812B/ws2812b.cpp ****         ledIterate > 0; ledIterate--)
 276              		.loc 1 78 5 is_stmt 0 view .LVU68
 277 0032 9BB2     		uxth	r3, r3
 278              	.LVL17:
 279              	.L11:
  79:App/WS2812B/ws2812b.cpp ****     {
 280              		.loc 1 79 20 is_stmt 1 view .LVU69
 281 0034 002B     		cmp	r3, #0
 282 0036 EDD1     		bne	.L12
 283              	.LVL18:
 284              	.L9:
  79:App/WS2812B/ws2812b.cpp ****     {
 285              		.loc 1 79 20 is_stmt 0 view .LVU70
 286              	.LBE8:
 287              	.LBE11:
  86:App/WS2812B/ws2812b.cpp ****         ledIterate < _ledsCount - 1; ledIterate++)
  87:App/WS2812B/ws2812b.cpp ****     {
  88:App/WS2812B/ws2812b.cpp ****             _targetColorData[_ledsCount - 1] = _targetColorData[0];
  89:App/WS2812B/ws2812b.cpp ****             _targetColorData[ledIterate] = _targetColorData[ledIterate + 1];
  90:App/WS2812B/ws2812b.cpp ****     }
  91:App/WS2812B/ws2812b.cpp **** }
 288              		.loc 1 91 1 view .LVU71
 289 0038 10BC     		pop	{r4}
 290              	.LCFI2:
 291              		.cfi_remember_state
 292              		.cfi_restore 4
ARM GAS  C:\Users\DARSTE~1\AppData\Local\Temp\ccKwuhjC.s 			page 8


 293              		.cfi_def_cfa_offset 0
 294 003a 7047     		bx	lr
 295              	.LVL19:
 296              	.L15:
 297              	.LCFI3:
 298              		.cfi_restore_state
 299              	.LBB12:
 300              	.LBB9:
 301              	.LBB7:
  88:App/WS2812B/ws2812b.cpp ****             _targetColorData[ledIterate] = _targetColorData[ledIterate + 1];
 302              		.loc 1 88 13 is_stmt 1 view .LVU72
  88:App/WS2812B/ws2812b.cpp ****             _targetColorData[ledIterate] = _targetColorData[ledIterate + 1];
 303              		.loc 1 88 48 is_stmt 0 view .LVU73
 304 003c C169     		ldr	r1, [r0, #28]
  88:App/WS2812B/ws2812b.cpp ****             _targetColorData[ledIterate] = _targetColorData[ledIterate + 1];
 305              		.loc 1 88 44 view .LVU74
 306 003e 03F18043 		add	r3, r3, #1073741824
 307 0042 013B     		subs	r3, r3, #1
  88:App/WS2812B/ws2812b.cpp ****             _targetColorData[ledIterate] = _targetColorData[ledIterate + 1];
 308              		.loc 1 88 66 view .LVU75
 309 0044 0C68     		ldr	r4, [r1]
  88:App/WS2812B/ws2812b.cpp ****             _targetColorData[ledIterate] = _targetColorData[ledIterate + 1];
 310              		.loc 1 88 46 view .LVU76
 311 0046 41F82340 		str	r4, [r1, r3, lsl #2]
  89:App/WS2812B/ws2812b.cpp ****     }
 312              		.loc 1 89 13 is_stmt 1 view .LVU77
  89:App/WS2812B/ws2812b.cpp ****     }
 313              		.loc 1 89 44 is_stmt 0 view .LVU78
 314 004a C169     		ldr	r1, [r0, #28]
  89:App/WS2812B/ws2812b.cpp ****     }
 315              		.loc 1 89 75 view .LVU79
 316 004c 531C     		adds	r3, r2, #1
 317 004e 51F82340 		ldr	r4, [r1, r3, lsl #2]
  89:App/WS2812B/ws2812b.cpp ****     }
 318              		.loc 1 89 42 view .LVU80
 319 0052 41F82240 		str	r4, [r1, r2, lsl #2]
  85:App/WS2812B/ws2812b.cpp ****         ledIterate < _ledsCount - 1; ledIterate++)
 320              		.loc 1 85 5 is_stmt 1 view .LVU81
 321 0056 9AB2     		uxth	r2, r3
 322              	.LVL20:
 323              	.L14:
  86:App/WS2812B/ws2812b.cpp ****     {
 324              		.loc 1 86 20 view .LVU82
  86:App/WS2812B/ws2812b.cpp ****     {
 325              		.loc 1 86 22 is_stmt 0 view .LVU83
 326 0058 0389     		ldrh	r3, [r0, #8]
  86:App/WS2812B/ws2812b.cpp ****     {
 327              		.loc 1 86 33 view .LVU84
 328 005a 591E     		subs	r1, r3, #1
  86:App/WS2812B/ws2812b.cpp ****     {
 329              		.loc 1 86 20 view .LVU85
 330 005c 8A42     		cmp	r2, r1
 331 005e EDDB     		blt	.L15
 332 0060 EAE7     		b	.L9
 333              	.LBE7:
 334              	.LBE9:
 335              	.LBE12:
ARM GAS  C:\Users\DARSTE~1\AppData\Local\Temp\ccKwuhjC.s 			page 9


 336              		.cfi_endproc
 337              	.LFE80:
 338              		.cantunwind
 339              		.fnend
 341              		.section	.text._ZN7WS2812B18startCallbackClockEv,"ax",%progbits
 342              		.align	1
 343              		.global	_ZN7WS2812B18startCallbackClockEv
 344              		.syntax unified
 345              		.thumb
 346              		.thumb_func
 348              	_ZN7WS2812B18startCallbackClockEv:
 349              		.fnstart
 350              	.LVL21:
 351              	.LFB84:
  92:App/WS2812B/ws2812b.cpp **** 
  93:App/WS2812B/ws2812b.cpp **** void WS2812B::render()
  94:App/WS2812B/ws2812b.cpp **** {
  95:App/WS2812B/ws2812b.cpp ****     memcpy(_colorData, _targetColorData, _ledsCount * 4);
  96:App/WS2812B/ws2812b.cpp ****     WS2812B::updateBuffer();
  97:App/WS2812B/ws2812b.cpp **** 
  98:App/WS2812B/ws2812b.cpp ****     HAL_TIM_PWM_Start_DMA(
  99:App/WS2812B/ws2812b.cpp ****         _PWMgenerator, _channel,
 100:App/WS2812B/ws2812b.cpp ****         (uint32_t *)_buffer,
 101:App/WS2812B/ws2812b.cpp ****         _ledsCount * _bufferDataMultiplier
 102:App/WS2812B/ws2812b.cpp ****     );
 103:App/WS2812B/ws2812b.cpp **** 
 104:App/WS2812B/ws2812b.cpp ****     UPDATE_STATE = WS2812B_UPDATE_ONGOING;
 105:App/WS2812B/ws2812b.cpp ****     while (UPDATE_STATE == WS2812B_UPDATE_ONGOING);
 106:App/WS2812B/ws2812b.cpp **** }
 107:App/WS2812B/ws2812b.cpp **** 
 108:App/WS2812B/ws2812b.cpp **** WS2812B_STATUS WS2812B::transition()
 109:App/WS2812B/ws2812b.cpp **** {
 110:App/WS2812B/ws2812b.cpp ****     uint16_t checkDifference = 0;
 111:App/WS2812B/ws2812b.cpp ****     for (uint16_t ledIterate = 0; ledIterate < _ledsCount; ledIterate++)
 112:App/WS2812B/ws2812b.cpp ****     {
 113:App/WS2812B/ws2812b.cpp ****         if (_colorData[ledIterate] == _targetColorData[ledIterate])
 114:App/WS2812B/ws2812b.cpp ****         {
 115:App/WS2812B/ws2812b.cpp ****             checkDifference++;
 116:App/WS2812B/ws2812b.cpp ****             continue;
 117:App/WS2812B/ws2812b.cpp ****         }
 118:App/WS2812B/ws2812b.cpp **** 
 119:App/WS2812B/ws2812b.cpp ****         uint8_t currentRed = WS2812B::extractRed(_colorData[ledIterate]);
 120:App/WS2812B/ws2812b.cpp ****         uint8_t currentGreen = WS2812B::extractGreen(_colorData[ledIterate]);
 121:App/WS2812B/ws2812b.cpp ****         uint8_t currentBlue = WS2812B::extractBlue(_colorData[ledIterate]);
 122:App/WS2812B/ws2812b.cpp **** 
 123:App/WS2812B/ws2812b.cpp ****         uint8_t targetRed = WS2812B::extractRed(_targetColorData[ledIterate]);
 124:App/WS2812B/ws2812b.cpp ****         uint8_t targetGreen = WS2812B::extractGreen(_targetColorData[ledIterate]);
 125:App/WS2812B/ws2812b.cpp ****         uint8_t targetBlue = WS2812B::extractBlue(_targetColorData[ledIterate]);
 126:App/WS2812B/ws2812b.cpp **** 
 127:App/WS2812B/ws2812b.cpp ****         if (currentRed < targetRed) currentRed++;
 128:App/WS2812B/ws2812b.cpp ****         else if (currentRed > targetRed) currentRed--;
 129:App/WS2812B/ws2812b.cpp **** 
 130:App/WS2812B/ws2812b.cpp ****         if (currentGreen < targetGreen) currentGreen++;
 131:App/WS2812B/ws2812b.cpp ****         else if (currentGreen > targetGreen) currentGreen--;
 132:App/WS2812B/ws2812b.cpp **** 
 133:App/WS2812B/ws2812b.cpp ****         if (currentBlue < targetBlue) currentBlue++;
 134:App/WS2812B/ws2812b.cpp ****         else if (currentBlue > targetBlue) currentBlue--;
ARM GAS  C:\Users\DARSTE~1\AppData\Local\Temp\ccKwuhjC.s 			page 10


 135:App/WS2812B/ws2812b.cpp **** 
 136:App/WS2812B/ws2812b.cpp ****         _colorData[ledIterate] = WS2812B::combineRGB(currentRed, currentGreen, currentBlue);
 137:App/WS2812B/ws2812b.cpp ****     }
 138:App/WS2812B/ws2812b.cpp **** 
 139:App/WS2812B/ws2812b.cpp ****     if (checkDifference == _ledsCount)
 140:App/WS2812B/ws2812b.cpp ****         return WS2812B_TRANSITION_FINISHED;
 141:App/WS2812B/ws2812b.cpp **** 
 142:App/WS2812B/ws2812b.cpp ****     WS2812B::updateBuffer();
 143:App/WS2812B/ws2812b.cpp **** 
 144:App/WS2812B/ws2812b.cpp ****     HAL_TIM_PWM_Start_DMA(
 145:App/WS2812B/ws2812b.cpp ****         _PWMgenerator, _channel,
 146:App/WS2812B/ws2812b.cpp ****         (uint32_t *)_buffer,
 147:App/WS2812B/ws2812b.cpp ****         _ledsCount * _bufferDataMultiplier
 148:App/WS2812B/ws2812b.cpp ****     );
 149:App/WS2812B/ws2812b.cpp **** 
 150:App/WS2812B/ws2812b.cpp ****     UPDATE_STATE = WS2812B_UPDATE_ONGOING;
 151:App/WS2812B/ws2812b.cpp ****     while (UPDATE_STATE == WS2812B_UPDATE_ONGOING);
 152:App/WS2812B/ws2812b.cpp **** 
 153:App/WS2812B/ws2812b.cpp ****     return (WS2812B_STATUS)0;
 154:App/WS2812B/ws2812b.cpp **** }
 155:App/WS2812B/ws2812b.cpp **** 
 156:App/WS2812B/ws2812b.cpp **** WS2812B_STATUS WS2812B::transition(float *timeTick, float duration)
 157:App/WS2812B/ws2812b.cpp **** {
 158:App/WS2812B/ws2812b.cpp ****     if (*timeTick > duration)
 159:App/WS2812B/ws2812b.cpp ****     {
 160:App/WS2812B/ws2812b.cpp ****         free(_transRed); free(_transGreen); free(_transBlue);
 161:App/WS2812B/ws2812b.cpp ****         free(_prevColorData);
 162:App/WS2812B/ws2812b.cpp ****         return WS2812B_TRANSITION_FINISHED;
 163:App/WS2812B/ws2812b.cpp ****     }
 164:App/WS2812B/ws2812b.cpp **** 
 165:App/WS2812B/ws2812b.cpp ****     if (duration <= 0.00f)
 166:App/WS2812B/ws2812b.cpp ****         return WS2812B_TRANSITION_FINISHED;
 167:App/WS2812B/ws2812b.cpp **** 
 168:App/WS2812B/ws2812b.cpp ****     if (*timeTick == 0.00f)
 169:App/WS2812B/ws2812b.cpp ****     {
 170:App/WS2812B/ws2812b.cpp ****         *timeTick = *timeTick + duration / 1000.0f; // Prevent accidental memory leak
 171:App/WS2812B/ws2812b.cpp ****         _transRed = (float *)calloc(_ledsCount, sizeof(uint32_t));
 172:App/WS2812B/ws2812b.cpp ****         _transGreen = (float *)calloc(_ledsCount, sizeof(uint32_t));
 173:App/WS2812B/ws2812b.cpp ****         _transBlue = (float *)calloc(_ledsCount, sizeof(uint32_t));
 174:App/WS2812B/ws2812b.cpp ****         _prevColorData = (uint32_t *)calloc(_ledsCount, sizeof(uint32_t));
 175:App/WS2812B/ws2812b.cpp ****         for (uint16_t ledIterate = 0; ledIterate < _ledsCount; ledIterate++)
 176:App/WS2812B/ws2812b.cpp ****         {
 177:App/WS2812B/ws2812b.cpp ****             _transRed[ledIterate] = (float)WS2812B::extractRed(_targetColorData[ledIterate]) - (flo
 178:App/WS2812B/ws2812b.cpp ****             _transGreen[ledIterate] = (float)WS2812B::extractGreen(_targetColorData[ledIterate]) - 
 179:App/WS2812B/ws2812b.cpp ****             _transBlue[ledIterate] = (float)WS2812B::extractBlue(_targetColorData[ledIterate]) - (f
 180:App/WS2812B/ws2812b.cpp ****             _transRed[ledIterate] = _transRed[ledIterate] / duration;
 181:App/WS2812B/ws2812b.cpp ****             _transGreen[ledIterate] = _transGreen[ledIterate] / duration;
 182:App/WS2812B/ws2812b.cpp ****             _transBlue[ledIterate] = _transBlue[ledIterate] / duration;
 183:App/WS2812B/ws2812b.cpp ****         }
 184:App/WS2812B/ws2812b.cpp ****         for (uint16_t ledIterate = 0; ledIterate < _ledsCount; ledIterate++)
 185:App/WS2812B/ws2812b.cpp ****             _prevColorData[ledIterate] = _colorData[ledIterate];
 186:App/WS2812B/ws2812b.cpp ****     }
 187:App/WS2812B/ws2812b.cpp **** 
 188:App/WS2812B/ws2812b.cpp ****     for (uint16_t ledIterate = 0; ledIterate < _ledsCount; ledIterate++)
 189:App/WS2812B/ws2812b.cpp ****         _colorData[ledIterate] = WS2812B::combineRGB(
 190:App/WS2812B/ws2812b.cpp ****             WS2812B::extractRed(_prevColorData[ledIterate]) + *timeTick * _transRed[ledIterate],
 191:App/WS2812B/ws2812b.cpp ****             WS2812B::extractGreen(_prevColorData[ledIterate]) + *timeTick * _transGreen[ledIterate]
ARM GAS  C:\Users\DARSTE~1\AppData\Local\Temp\ccKwuhjC.s 			page 11


 192:App/WS2812B/ws2812b.cpp ****             WS2812B::extractBlue(_prevColorData[ledIterate]) + *timeTick * _transBlue[ledIterate]
 193:App/WS2812B/ws2812b.cpp ****         );
 194:App/WS2812B/ws2812b.cpp **** 
 195:App/WS2812B/ws2812b.cpp ****     WS2812B::updateBuffer();
 196:App/WS2812B/ws2812b.cpp **** 
 197:App/WS2812B/ws2812b.cpp ****     HAL_TIM_PWM_Start_DMA(
 198:App/WS2812B/ws2812b.cpp ****         _PWMgenerator, _channel,
 199:App/WS2812B/ws2812b.cpp ****         (uint32_t *)_buffer,
 200:App/WS2812B/ws2812b.cpp ****         _ledsCount * _bufferDataMultiplier
 201:App/WS2812B/ws2812b.cpp ****     );
 202:App/WS2812B/ws2812b.cpp **** 
 203:App/WS2812B/ws2812b.cpp ****     UPDATE_STATE = WS2812B_UPDATE_ONGOING;
 204:App/WS2812B/ws2812b.cpp ****     while (UPDATE_STATE == WS2812B_UPDATE_ONGOING);
 205:App/WS2812B/ws2812b.cpp **** 
 206:App/WS2812B/ws2812b.cpp ****     return (WS2812B_STATUS)0;
 207:App/WS2812B/ws2812b.cpp **** }
 208:App/WS2812B/ws2812b.cpp **** 
 209:App/WS2812B/ws2812b.cpp ****  void WS2812B::startCallbackClock()
 210:App/WS2812B/ws2812b.cpp ****  { HAL_TIM_Base_Start_IT(_PWMgenerator); }
 352              		.loc 1 210 2 is_stmt 1 view -0
 353              		.cfi_startproc
 354              		@ args = 0, pretend = 0, frame = 0
 355              		@ frame_needed = 0, uses_anonymous_args = 0
 356              		.loc 1 210 2 is_stmt 0 view .LVU87
 357 0000 08B5     		push	{r3, lr}
 358              		.save {r3, lr}
 359              	.LCFI4:
 360              		.cfi_def_cfa_offset 8
 361              		.cfi_offset 3, -8
 362              		.cfi_offset 14, -4
 363              		.loc 1 210 4 is_stmt 1 view .LVU88
 364              		.loc 1 210 25 is_stmt 0 view .LVU89
 365 0002 4068     		ldr	r0, [r0, #4]
 366              	.LVL22:
 367              		.loc 1 210 25 view .LVU90
 368 0004 FFF7FEFF 		bl	HAL_TIM_Base_Start_IT
 369              	.LVL23:
 370              		.loc 1 210 42 view .LVU91
 371 0008 08BD     		pop	{r3, pc}
 372              		.cfi_endproc
 373              	.LFE84:
 374              		.fnend
 376              		.section	.text._ZN7WS2812B17stopCallbackClockEv,"ax",%progbits
 377              		.align	1
 378              		.global	_ZN7WS2812B17stopCallbackClockEv
 379              		.syntax unified
 380              		.thumb
 381              		.thumb_func
 383              	_ZN7WS2812B17stopCallbackClockEv:
 384              		.fnstart
 385              	.LVL24:
 386              	.LFB85:
 211:App/WS2812B/ws2812b.cpp ****   void WS2812B::stopCallbackClock()
 212:App/WS2812B/ws2812b.cpp ****  { HAL_TIM_Base_Stop_IT(_PWMgenerator); }
 387              		.loc 1 212 2 is_stmt 1 view -0
 388              		.cfi_startproc
 389              		@ args = 0, pretend = 0, frame = 0
ARM GAS  C:\Users\DARSTE~1\AppData\Local\Temp\ccKwuhjC.s 			page 12


 390              		@ frame_needed = 0, uses_anonymous_args = 0
 391              		.loc 1 212 2 is_stmt 0 view .LVU93
 392 0000 08B5     		push	{r3, lr}
 393              		.save {r3, lr}
 394              	.LCFI5:
 395              		.cfi_def_cfa_offset 8
 396              		.cfi_offset 3, -8
 397              		.cfi_offset 14, -4
 398              		.loc 1 212 4 is_stmt 1 view .LVU94
 399              		.loc 1 212 24 is_stmt 0 view .LVU95
 400 0002 4068     		ldr	r0, [r0, #4]
 401              	.LVL25:
 402              		.loc 1 212 24 view .LVU96
 403 0004 FFF7FEFF 		bl	HAL_TIM_Base_Stop_IT
 404              	.LVL26:
 405              		.loc 1 212 41 view .LVU97
 406 0008 08BD     		pop	{r3, pc}
 407              		.cfi_endproc
 408              	.LFE85:
 409              		.fnend
 411              		.section	.text._ZN7WS2812B10extractRedEm,"ax",%progbits
 412              		.align	1
 413              		.global	_ZN7WS2812B10extractRedEm
 414              		.syntax unified
 415              		.thumb
 416              		.thumb_func
 418              	_ZN7WS2812B10extractRedEm:
 419              		.fnstart
 420              	.LVL27:
 421              	.LFB86:
 213:App/WS2812B/ws2812b.cpp **** 
 214:App/WS2812B/ws2812b.cpp **** uint8_t WS2812B::extractRed(uint32_t RGB)
 215:App/WS2812B/ws2812b.cpp **** { return (uint8_t)((RGB >> 16) & 0xFF); }
 422              		.loc 1 215 1 is_stmt 1 view -0
 423              		.cfi_startproc
 424              		@ args = 0, pretend = 0, frame = 0
 425              		@ frame_needed = 0, uses_anonymous_args = 0
 426              		@ link register save eliminated.
 427              		.loc 1 215 3 view .LVU99
 428              		.loc 1 215 41 is_stmt 0 view .LVU100
 429 0000 C1F30740 		ubfx	r0, r1, #16, #8
 430              	.LVL28:
 431              		.loc 1 215 41 view .LVU101
 432 0004 7047     		bx	lr
 433              		.cfi_endproc
 434              	.LFE86:
 435              		.cantunwind
 436              		.fnend
 438              		.section	.text._ZN7WS2812B12extractGreenEm,"ax",%progbits
 439              		.align	1
 440              		.global	_ZN7WS2812B12extractGreenEm
 441              		.syntax unified
 442              		.thumb
 443              		.thumb_func
 445              	_ZN7WS2812B12extractGreenEm:
 446              		.fnstart
 447              	.LVL29:
ARM GAS  C:\Users\DARSTE~1\AppData\Local\Temp\ccKwuhjC.s 			page 13


 448              	.LFB87:
 216:App/WS2812B/ws2812b.cpp **** uint8_t WS2812B::extractGreen(uint32_t RGB)
 217:App/WS2812B/ws2812b.cpp **** { return (uint8_t)((RGB >> 8) & 0xFF); }
 449              		.loc 1 217 1 is_stmt 1 view -0
 450              		.cfi_startproc
 451              		@ args = 0, pretend = 0, frame = 0
 452              		@ frame_needed = 0, uses_anonymous_args = 0
 453              		@ link register save eliminated.
 454              		.loc 1 217 3 view .LVU103
 455              		.loc 1 217 40 is_stmt 0 view .LVU104
 456 0000 C1F30720 		ubfx	r0, r1, #8, #8
 457              	.LVL30:
 458              		.loc 1 217 40 view .LVU105
 459 0004 7047     		bx	lr
 460              		.cfi_endproc
 461              	.LFE87:
 462              		.cantunwind
 463              		.fnend
 465              		.section	.text._ZN7WS2812B11extractBlueEm,"ax",%progbits
 466              		.align	1
 467              		.global	_ZN7WS2812B11extractBlueEm
 468              		.syntax unified
 469              		.thumb
 470              		.thumb_func
 472              	_ZN7WS2812B11extractBlueEm:
 473              		.fnstart
 474              	.LVL31:
 475              	.LFB88:
 218:App/WS2812B/ws2812b.cpp **** uint8_t WS2812B::extractBlue(uint32_t RGB)
 219:App/WS2812B/ws2812b.cpp **** { return (uint8_t)((RGB >> 0) & 0xFF); }
 476              		.loc 1 219 1 is_stmt 1 view -0
 477              		.cfi_startproc
 478              		@ args = 0, pretend = 0, frame = 0
 479              		@ frame_needed = 0, uses_anonymous_args = 0
 480              		@ link register save eliminated.
 481              		.loc 1 219 3 view .LVU107
 482              		.loc 1 219 40 is_stmt 0 view .LVU108
 483 0000 C8B2     		uxtb	r0, r1
 484              	.LVL32:
 485              		.loc 1 219 40 view .LVU109
 486 0002 7047     		bx	lr
 487              		.cfi_endproc
 488              	.LFE88:
 489              		.cantunwind
 490              		.fnend
 492              		.section	.text._ZN7WS2812B10combineRGBEhhh,"ax",%progbits
 493              		.align	1
 494              		.global	_ZN7WS2812B10combineRGBEhhh
 495              		.syntax unified
 496              		.thumb
 497              		.thumb_func
 499              	_ZN7WS2812B10combineRGBEhhh:
 500              		.fnstart
 501              	.LVL33:
 502              	.LFB89:
 220:App/WS2812B/ws2812b.cpp **** uint32_t WS2812B::combineRGB(uint8_t red, uint8_t green, uint8_t blue)
 221:App/WS2812B/ws2812b.cpp **** {
ARM GAS  C:\Users\DARSTE~1\AppData\Local\Temp\ccKwuhjC.s 			page 14


 503              		.loc 1 221 1 is_stmt 1 view -0
 504              		.cfi_startproc
 505              		@ args = 0, pretend = 0, frame = 0
 506              		@ frame_needed = 0, uses_anonymous_args = 0
 507              		@ link register save eliminated.
 222:App/WS2812B/ws2812b.cpp ****     uint32_t RGB = (
 508              		.loc 1 222 5 view .LVU111
 223:App/WS2812B/ws2812b.cpp ****         (uint32_t)red << 16 |
 224:App/WS2812B/ws2812b.cpp ****         (uint32_t)green << 8 |
 509              		.loc 1 224 25 is_stmt 0 view .LVU112
 510 0000 1202     		lsls	r2, r2, #8
 511              	.LVL34:
 223:App/WS2812B/ws2812b.cpp ****         (uint32_t)red << 16 |
 512              		.loc 1 223 29 view .LVU113
 513 0002 42EA0142 		orr	r2, r2, r1, lsl #16
 514              	.LVL35:
 225:App/WS2812B/ws2812b.cpp ****         (uint32_t)blue << 0
 226:App/WS2812B/ws2812b.cpp ****     );
 227:App/WS2812B/ws2812b.cpp ****     return RGB;
 515              		.loc 1 227 5 is_stmt 1 view .LVU114
 228:App/WS2812B/ws2812b.cpp **** }
 516              		.loc 1 228 1 is_stmt 0 view .LVU115
 517 0006 42EA0300 		orr	r0, r2, r3
 518              	.LVL36:
 519              		.loc 1 228 1 view .LVU116
 520 000a 7047     		bx	lr
 521              		.cfi_endproc
 522              	.LFE89:
 523              		.cantunwind
 524              		.fnend
 526              		.global	__aeabi_ui2f
 527              		.global	__aeabi_fsub
 528              		.global	__aeabi_i2f
 529              		.global	__aeabi_fdiv
 530              		.global	__aeabi_fmul
 531              		.global	__aeabi_f2uiz
 532              		.global	__aeabi_fadd
 533              		.section	.text._ZN7WS2812B15gradient2ColorsEmtmt,"ax",%progbits
 534              		.align	1
 535              		.global	_ZN7WS2812B15gradient2ColorsEmtmt
 536              		.syntax unified
 537              		.thumb
 538              		.thumb_func
 540              	_ZN7WS2812B15gradient2ColorsEmtmt:
 541              		.fnstart
 542              	.LVL37:
 543              	.LFB79:
  50:App/WS2812B/ws2812b.cpp ****     float stepRed = (float)WS2812B::extractRed(startColor) - (float)WS2812B::extractRed(endColor);
 544              		.loc 1 50 1 is_stmt 1 view -0
 545              		.cfi_startproc
 546              		@ args = 4, pretend = 0, frame = 48
 547              		@ frame_needed = 0, uses_anonymous_args = 0
  50:App/WS2812B/ws2812b.cpp ****     float stepRed = (float)WS2812B::extractRed(startColor) - (float)WS2812B::extractRed(endColor);
 548              		.loc 1 50 1 is_stmt 0 view .LVU118
 549 0000 2DE9F04F 		push	{r4, r5, r6, r7, r8, r9, r10, fp, lr}
 550              	.LCFI6:
 551              		.cfi_def_cfa_offset 36
ARM GAS  C:\Users\DARSTE~1\AppData\Local\Temp\ccKwuhjC.s 			page 15


 552              		.cfi_offset 4, -36
 553              		.cfi_offset 5, -32
 554              		.cfi_offset 6, -28
 555              		.cfi_offset 7, -24
 556              		.cfi_offset 8, -20
 557              		.cfi_offset 9, -16
 558              		.cfi_offset 10, -12
 559              		.cfi_offset 11, -8
 560              		.cfi_offset 14, -4
 561 0004 8DB0     		sub	sp, sp, #52
 562              	.LCFI7:
 563              		.cfi_def_cfa_offset 88
 564 0006 8346     		mov	fp, r0
 565 0008 0E46     		mov	r6, r1
 566 000a 9146     		mov	r9, r2
 567 000c 1D46     		mov	r5, r3
 568 000e BDF85840 		ldrh	r4, [sp, #88]
  51:App/WS2812B/ws2812b.cpp ****     float stepGreen = (float)WS2812B::extractGreen(startColor) - (float)WS2812B::extractGreen(endCo
 569              		.loc 1 51 5 is_stmt 1 view .LVU119
  51:App/WS2812B/ws2812b.cpp ****     float stepGreen = (float)WS2812B::extractGreen(startColor) - (float)WS2812B::extractGreen(endCo
 570              		.loc 1 51 47 is_stmt 0 view .LVU120
 571 0012 FFF7FEFF 		bl	_ZN7WS2812B10extractRedEm
 572              	.LVL38:
  51:App/WS2812B/ws2812b.cpp ****     float stepGreen = (float)WS2812B::extractGreen(startColor) - (float)WS2812B::extractGreen(endCo
 573              		.loc 1 51 47 view .LVU121
 574 0016 0390     		str	r0, [sp, #12]
  51:App/WS2812B/ws2812b.cpp ****     float stepGreen = (float)WS2812B::extractGreen(startColor) - (float)WS2812B::extractGreen(endCo
 575              		.loc 1 51 21 discriminator 1 view .LVU122
 576 0018 FFF7FEFF 		bl	__aeabi_ui2f
 577              	.LVL39:
 578 001c 0746     		mov	r7, r0
  51:App/WS2812B/ws2812b.cpp ****     float stepGreen = (float)WS2812B::extractGreen(startColor) - (float)WS2812B::extractGreen(endCo
 579              		.loc 1 51 88 discriminator 1 view .LVU123
 580 001e 2946     		mov	r1, r5
 581 0020 5846     		mov	r0, fp
 582 0022 FFF7FEFF 		bl	_ZN7WS2812B10extractRedEm
 583              	.LVL40:
 584 0026 0490     		str	r0, [sp, #16]
  51:App/WS2812B/ws2812b.cpp ****     float stepGreen = (float)WS2812B::extractGreen(startColor) - (float)WS2812B::extractGreen(endCo
 585              		.loc 1 51 62 discriminator 2 view .LVU124
 586 0028 FFF7FEFF 		bl	__aeabi_ui2f
 587              	.LVL41:
 588 002c 0146     		mov	r1, r0
  51:App/WS2812B/ws2812b.cpp ****     float stepGreen = (float)WS2812B::extractGreen(startColor) - (float)WS2812B::extractGreen(endCo
 589              		.loc 1 51 97 discriminator 2 view .LVU125
 590 002e 3846     		mov	r0, r7
 591 0030 FFF7FEFF 		bl	__aeabi_fsub
 592              	.LVL42:
 593 0034 8046     		mov	r8, r0
 594              	.LVL43:
  52:App/WS2812B/ws2812b.cpp ****     float stepBlue = (float)WS2812B::extractBlue(startColor) - (float)WS2812B::extractBlue(endColor
 595              		.loc 1 52 5 is_stmt 1 view .LVU126
  52:App/WS2812B/ws2812b.cpp ****     float stepBlue = (float)WS2812B::extractBlue(startColor) - (float)WS2812B::extractBlue(endColor
 596              		.loc 1 52 51 is_stmt 0 view .LVU127
 597 0036 3146     		mov	r1, r6
 598 0038 5846     		mov	r0, fp
 599              	.LVL44:
ARM GAS  C:\Users\DARSTE~1\AppData\Local\Temp\ccKwuhjC.s 			page 16


  52:App/WS2812B/ws2812b.cpp ****     float stepBlue = (float)WS2812B::extractBlue(startColor) - (float)WS2812B::extractBlue(endColor
 600              		.loc 1 52 51 view .LVU128
 601 003a FFF7FEFF 		bl	_ZN7WS2812B12extractGreenEm
 602              	.LVL45:
 603 003e 0590     		str	r0, [sp, #20]
  52:App/WS2812B/ws2812b.cpp ****     float stepBlue = (float)WS2812B::extractBlue(startColor) - (float)WS2812B::extractBlue(endColor
 604              		.loc 1 52 23 discriminator 1 view .LVU129
 605 0040 FFF7FEFF 		bl	__aeabi_ui2f
 606              	.LVL46:
 607 0044 0746     		mov	r7, r0
  52:App/WS2812B/ws2812b.cpp ****     float stepBlue = (float)WS2812B::extractBlue(startColor) - (float)WS2812B::extractBlue(endColor
 608              		.loc 1 52 94 discriminator 1 view .LVU130
 609 0046 2946     		mov	r1, r5
 610 0048 5846     		mov	r0, fp
 611 004a FFF7FEFF 		bl	_ZN7WS2812B12extractGreenEm
 612              	.LVL47:
 613 004e 0690     		str	r0, [sp, #24]
  52:App/WS2812B/ws2812b.cpp ****     float stepBlue = (float)WS2812B::extractBlue(startColor) - (float)WS2812B::extractBlue(endColor
 614              		.loc 1 52 66 discriminator 2 view .LVU131
 615 0050 FFF7FEFF 		bl	__aeabi_ui2f
 616              	.LVL48:
 617 0054 0146     		mov	r1, r0
  52:App/WS2812B/ws2812b.cpp ****     float stepBlue = (float)WS2812B::extractBlue(startColor) - (float)WS2812B::extractBlue(endColor
 618              		.loc 1 52 103 discriminator 2 view .LVU132
 619 0056 3846     		mov	r0, r7
 620 0058 FFF7FEFF 		bl	__aeabi_fsub
 621              	.LVL49:
 622 005c 0746     		mov	r7, r0
 623              	.LVL50:
  53:App/WS2812B/ws2812b.cpp ****     stepRed = stepRed / (float)(end - start);
 624              		.loc 1 53 5 is_stmt 1 view .LVU133
  53:App/WS2812B/ws2812b.cpp ****     stepRed = stepRed / (float)(end - start);
 625              		.loc 1 53 49 is_stmt 0 view .LVU134
 626 005e 3146     		mov	r1, r6
 627 0060 5846     		mov	r0, fp
 628              	.LVL51:
  53:App/WS2812B/ws2812b.cpp ****     stepRed = stepRed / (float)(end - start);
 629              		.loc 1 53 49 view .LVU135
 630 0062 FFF7FEFF 		bl	_ZN7WS2812B11extractBlueEm
 631              	.LVL52:
 632 0066 0790     		str	r0, [sp, #28]
  53:App/WS2812B/ws2812b.cpp ****     stepRed = stepRed / (float)(end - start);
 633              		.loc 1 53 22 discriminator 1 view .LVU136
 634 0068 FFF7FEFF 		bl	__aeabi_ui2f
 635              	.LVL53:
 636 006c 0646     		mov	r6, r0
 637              	.LVL54:
  53:App/WS2812B/ws2812b.cpp ****     stepRed = stepRed / (float)(end - start);
 638              		.loc 1 53 91 discriminator 1 view .LVU137
 639 006e 2946     		mov	r1, r5
 640 0070 5846     		mov	r0, fp
 641 0072 FFF7FEFF 		bl	_ZN7WS2812B11extractBlueEm
 642              	.LVL55:
 643 0076 0890     		str	r0, [sp, #32]
  53:App/WS2812B/ws2812b.cpp ****     stepRed = stepRed / (float)(end - start);
 644              		.loc 1 53 64 discriminator 2 view .LVU138
 645 0078 FFF7FEFF 		bl	__aeabi_ui2f
ARM GAS  C:\Users\DARSTE~1\AppData\Local\Temp\ccKwuhjC.s 			page 17


 646              	.LVL56:
 647 007c 0146     		mov	r1, r0
  53:App/WS2812B/ws2812b.cpp ****     stepRed = stepRed / (float)(end - start);
 648              		.loc 1 53 100 discriminator 2 view .LVU139
 649 007e 3046     		mov	r0, r6
 650 0080 FFF7FEFF 		bl	__aeabi_fsub
 651              	.LVL57:
 652 0084 0646     		mov	r6, r0
 653              	.LVL58:
  54:App/WS2812B/ws2812b.cpp ****     stepGreen = stepGreen / (float)(end - start);
 654              		.loc 1 54 5 is_stmt 1 view .LVU140
  54:App/WS2812B/ws2812b.cpp ****     stepGreen = stepGreen / (float)(end - start);
 655              		.loc 1 54 25 is_stmt 0 view .LVU141
 656 0086 A4EB0900 		sub	r0, r4, r9
 657              	.LVL59:
  54:App/WS2812B/ws2812b.cpp ****     stepGreen = stepGreen / (float)(end - start);
 658              		.loc 1 54 25 view .LVU142
 659 008a FFF7FEFF 		bl	__aeabi_i2f
 660              	.LVL60:
 661 008e 0546     		mov	r5, r0
 662              	.LVL61:
  54:App/WS2812B/ws2812b.cpp ****     stepGreen = stepGreen / (float)(end - start);
 663              		.loc 1 54 13 view .LVU143
 664 0090 0146     		mov	r1, r0
 665 0092 4046     		mov	r0, r8
 666 0094 FFF7FEFF 		bl	__aeabi_fdiv
 667              	.LVL62:
 668 0098 0990     		str	r0, [sp, #36]	@ float
 669              	.LVL63:
  55:App/WS2812B/ws2812b.cpp ****     stepBlue = stepBlue / (float)(end - start);
 670              		.loc 1 55 5 is_stmt 1 view .LVU144
  55:App/WS2812B/ws2812b.cpp ****     stepBlue = stepBlue / (float)(end - start);
 671              		.loc 1 55 15 is_stmt 0 view .LVU145
 672 009a 2946     		mov	r1, r5
 673 009c 3846     		mov	r0, r7
 674              	.LVL64:
  55:App/WS2812B/ws2812b.cpp ****     stepBlue = stepBlue / (float)(end - start);
 675              		.loc 1 55 15 view .LVU146
 676 009e FFF7FEFF 		bl	__aeabi_fdiv
 677              	.LVL65:
 678 00a2 0A90     		str	r0, [sp, #40]	@ float
 679              	.LVL66:
  56:App/WS2812B/ws2812b.cpp **** 
 680              		.loc 1 56 5 is_stmt 1 view .LVU147
  56:App/WS2812B/ws2812b.cpp **** 
 681              		.loc 1 56 14 is_stmt 0 view .LVU148
 682 00a4 2946     		mov	r1, r5
 683 00a6 3046     		mov	r0, r6
 684              	.LVL67:
  56:App/WS2812B/ws2812b.cpp **** 
 685              		.loc 1 56 14 view .LVU149
 686 00a8 FFF7FEFF 		bl	__aeabi_fdiv
 687              	.LVL68:
 688 00ac 0B90     		str	r0, [sp, #44]	@ float
 689              	.LVL69:
  58:App/WS2812B/ws2812b.cpp ****     while (start <= end)
 690              		.loc 1 58 5 is_stmt 1 view .LVU150
ARM GAS  C:\Users\DARSTE~1\AppData\Local\Temp\ccKwuhjC.s 			page 18


  59:App/WS2812B/ws2812b.cpp ****     {
 691              		.loc 1 59 5 view .LVU151
  58:App/WS2812B/ws2812b.cpp ****     while (start <= end)
 692              		.loc 1 58 14 is_stmt 0 view .LVU152
 693 00ae 4FF0000A 		mov	r10, #0
  59:App/WS2812B/ws2812b.cpp ****     {
 694              		.loc 1 59 5 view .LVU153
 695 00b2 6EE0     		b	.L28
 696              	.LVL70:
 697              	.L29:
  61:App/WS2812B/ws2812b.cpp ****             WS2812B::extractRed(startColor) - colorIterate * stepRed,
 698              		.loc 1 61 9 is_stmt 1 view .LVU154
  62:App/WS2812B/ws2812b.cpp ****             WS2812B::extractGreen(startColor) - colorIterate * stepGreen,
 699              		.loc 1 62 60 is_stmt 0 discriminator 1 view .LVU155
 700 00b4 5046     		mov	r0, r10
 701 00b6 FFF7FEFF 		bl	__aeabi_i2f
 702              	.LVL71:
 703 00ba 0546     		mov	r5, r0
 704 00bc 0999     		ldr	r1, [sp, #36]	@ float
 705 00be FFF7FEFF 		bl	__aeabi_fmul
 706              	.LVL72:
 707 00c2 0746     		mov	r7, r0
  62:App/WS2812B/ws2812b.cpp ****             WS2812B::extractGreen(startColor) - colorIterate * stepGreen,
 708              		.loc 1 62 45 discriminator 1 view .LVU156
 709 00c4 0398     		ldr	r0, [sp, #12]
 710 00c6 FFF7FEFF 		bl	__aeabi_i2f
 711              	.LVL73:
 712 00ca 3946     		mov	r1, r7
 713 00cc FFF7FEFF 		bl	__aeabi_fsub
 714              	.LVL74:
 715 00d0 0090     		str	r0, [sp]	@ float
  63:App/WS2812B/ws2812b.cpp ****             WS2812B::extractBlue(startColor) - colorIterate * stepBlue
 716              		.loc 1 63 62 discriminator 1 view .LVU157
 717 00d2 0A99     		ldr	r1, [sp, #40]	@ float
 718 00d4 2846     		mov	r0, r5
 719 00d6 FFF7FEFF 		bl	__aeabi_fmul
 720              	.LVL75:
 721 00da 0646     		mov	r6, r0
  63:App/WS2812B/ws2812b.cpp ****             WS2812B::extractBlue(startColor) - colorIterate * stepBlue
 722              		.loc 1 63 47 discriminator 1 view .LVU158
 723 00dc 0598     		ldr	r0, [sp, #20]
 724 00de FFF7FEFF 		bl	__aeabi_i2f
 725              	.LVL76:
 726 00e2 0196     		str	r6, [sp, #4]	@ float
 727 00e4 3146     		mov	r1, r6
 728 00e6 FFF7FEFF 		bl	__aeabi_fsub
 729              	.LVL77:
 730 00ea 8046     		mov	r8, r0
  64:App/WS2812B/ws2812b.cpp ****         );
 731              		.loc 1 64 61 discriminator 1 view .LVU159
 732 00ec 0B99     		ldr	r1, [sp, #44]	@ float
 733 00ee 2846     		mov	r0, r5
 734 00f0 FFF7FEFF 		bl	__aeabi_fmul
 735              	.LVL78:
 736 00f4 0546     		mov	r5, r0
  64:App/WS2812B/ws2812b.cpp ****         );
 737              		.loc 1 64 46 discriminator 1 view .LVU160
ARM GAS  C:\Users\DARSTE~1\AppData\Local\Temp\ccKwuhjC.s 			page 19


 738 00f6 0798     		ldr	r0, [sp, #28]
 739 00f8 FFF7FEFF 		bl	__aeabi_i2f
 740              	.LVL79:
 741 00fc 0295     		str	r5, [sp, #8]	@ float
 742 00fe 2946     		mov	r1, r5
 743 0100 FFF7FEFF 		bl	__aeabi_fsub
 744              	.LVL80:
  61:App/WS2812B/ws2812b.cpp ****             WS2812B::extractRed(startColor) - colorIterate * stepRed,
 745              		.loc 1 61 9 view .LVU161
 746 0104 DBF81C50 		ldr	r5, [fp, #28]
  61:App/WS2812B/ws2812b.cpp ****             WS2812B::extractRed(startColor) - colorIterate * stepRed,
 747              		.loc 1 61 54 view .LVU162
 748 0108 FFF7FEFF 		bl	__aeabi_f2uiz
 749              	.LVL81:
 750 010c C6B2     		uxtb	r6, r0
 751 010e 4046     		mov	r0, r8
 752 0110 FFF7FEFF 		bl	__aeabi_f2uiz
 753              	.LVL82:
 754 0114 5FFA80F8 		uxtb	r8, r0
 755 0118 0098     		ldr	r0, [sp]	@ float
 756 011a FFF7FEFF 		bl	__aeabi_f2uiz
 757              	.LVL83:
 758 011e 3346     		mov	r3, r6
 759 0120 4246     		mov	r2, r8
 760 0122 C1B2     		uxtb	r1, r0
 761 0124 5846     		mov	r0, fp
 762 0126 FFF7FEFF 		bl	_ZN7WS2812B10combineRGBEhhh
 763              	.LVL84:
  61:App/WS2812B/ws2812b.cpp ****             WS2812B::extractRed(startColor) - colorIterate * stepRed,
 764              		.loc 1 61 33 discriminator 1 view .LVU163
 765 012a 45F82900 		str	r0, [r5, r9, lsl #2]
  66:App/WS2812B/ws2812b.cpp ****             WS2812B::extractRed(endColor) + colorIterate * stepRed,
 766              		.loc 1 66 9 is_stmt 1 view .LVU164
  67:App/WS2812B/ws2812b.cpp ****             WS2812B::extractGreen(endColor) + colorIterate * stepGreen,
 767              		.loc 1 67 43 is_stmt 0 discriminator 1 view .LVU165
 768 012e 0498     		ldr	r0, [sp, #16]
 769 0130 FFF7FEFF 		bl	__aeabi_i2f
 770              	.LVL85:
 771 0134 3946     		mov	r1, r7
 772 0136 FFF7FEFF 		bl	__aeabi_fadd
 773              	.LVL86:
 774 013a 0746     		mov	r7, r0
  68:App/WS2812B/ws2812b.cpp ****             WS2812B::extractBlue(endColor) + colorIterate * stepBlue
 775              		.loc 1 68 45 discriminator 1 view .LVU166
 776 013c 0698     		ldr	r0, [sp, #24]
 777 013e FFF7FEFF 		bl	__aeabi_i2f
 778              	.LVL87:
 779 0142 0199     		ldr	r1, [sp, #4]	@ float
 780 0144 FFF7FEFF 		bl	__aeabi_fadd
 781              	.LVL88:
 782 0148 0646     		mov	r6, r0
  69:App/WS2812B/ws2812b.cpp ****         );
 783              		.loc 1 69 44 discriminator 1 view .LVU167
 784 014a 0898     		ldr	r0, [sp, #32]
 785 014c FFF7FEFF 		bl	__aeabi_i2f
 786              	.LVL89:
 787 0150 0299     		ldr	r1, [sp, #8]	@ float
ARM GAS  C:\Users\DARSTE~1\AppData\Local\Temp\ccKwuhjC.s 			page 20


 788 0152 FFF7FEFF 		bl	__aeabi_fadd
 789              	.LVL90:
  66:App/WS2812B/ws2812b.cpp ****             WS2812B::extractRed(endColor) + colorIterate * stepRed,
 790              		.loc 1 66 9 view .LVU168
 791 0156 DBF81C80 		ldr	r8, [fp, #28]
  66:App/WS2812B/ws2812b.cpp ****             WS2812B::extractRed(endColor) + colorIterate * stepRed,
 792              		.loc 1 66 52 view .LVU169
 793 015a FFF7FEFF 		bl	__aeabi_f2uiz
 794              	.LVL91:
 795 015e C5B2     		uxtb	r5, r0
 796 0160 3046     		mov	r0, r6
 797 0162 FFF7FEFF 		bl	__aeabi_f2uiz
 798              	.LVL92:
 799 0166 C6B2     		uxtb	r6, r0
 800 0168 3846     		mov	r0, r7
 801 016a FFF7FEFF 		bl	__aeabi_f2uiz
 802              	.LVL93:
 803 016e 2B46     		mov	r3, r5
 804 0170 3246     		mov	r2, r6
 805 0172 C1B2     		uxtb	r1, r0
 806 0174 5846     		mov	r0, fp
 807 0176 FFF7FEFF 		bl	_ZN7WS2812B10combineRGBEhhh
 808              	.LVL94:
  66:App/WS2812B/ws2812b.cpp ****             WS2812B::extractRed(endColor) + colorIterate * stepRed,
 809              		.loc 1 66 31 discriminator 1 view .LVU170
 810 017a 48F82400 		str	r0, [r8, r4, lsl #2]
  71:App/WS2812B/ws2812b.cpp ****     }
 811              		.loc 1 71 9 is_stmt 1 view .LVU171
  71:App/WS2812B/ws2812b.cpp ****     }
 812              		.loc 1 71 21 is_stmt 0 view .LVU172
 813 017e 0AF10103 		add	r3, r10, #1
 814 0182 1FFA83FA 		uxth	r10, r3
 815              	.LVL95:
  71:App/WS2812B/ws2812b.cpp ****     }
 816              		.loc 1 71 25 is_stmt 1 view .LVU173
  71:App/WS2812B/ws2812b.cpp ****     }
 817              		.loc 1 71 30 is_stmt 0 view .LVU174
 818 0186 09F10109 		add	r9, r9, #1
 819              	.LVL96:
  71:App/WS2812B/ws2812b.cpp ****     }
 820              		.loc 1 71 30 view .LVU175
 821 018a 1FFA89F9 		uxth	r9, r9
 822              	.LVL97:
  71:App/WS2812B/ws2812b.cpp ****     }
 823              		.loc 1 71 34 is_stmt 1 view .LVU176
  71:App/WS2812B/ws2812b.cpp ****     }
 824              		.loc 1 71 37 is_stmt 0 view .LVU177
 825 018e 013C     		subs	r4, r4, #1
 826              	.LVL98:
  71:App/WS2812B/ws2812b.cpp ****     }
 827              		.loc 1 71 37 view .LVU178
 828 0190 A4B2     		uxth	r4, r4
 829              	.LVL99:
 830              	.L28:
  59:App/WS2812B/ws2812b.cpp ****     {
 831              		.loc 1 59 18 is_stmt 1 view .LVU179
 832 0192 A145     		cmp	r9, r4
ARM GAS  C:\Users\DARSTE~1\AppData\Local\Temp\ccKwuhjC.s 			page 21


 833 0194 8ED9     		bls	.L29
  73:App/WS2812B/ws2812b.cpp **** 
 834              		.loc 1 73 1 is_stmt 0 view .LVU180
 835 0196 0DB0     		add	sp, sp, #52
 836              	.LCFI8:
 837              		.cfi_def_cfa_offset 36
 838              		@ sp needed
 839 0198 BDE8F08F 		pop	{r4, r5, r6, r7, r8, r9, r10, fp, pc}
  73:App/WS2812B/ws2812b.cpp **** 
 840              		.loc 1 73 1 view .LVU181
 841              		.cfi_endproc
 842              	.LFE79:
 843              		.cantunwind
 844              		.fnend
 846              		.section	.text._ZN7WS2812B5toGRBEm,"ax",%progbits
 847              		.align	1
 848              		.global	_ZN7WS2812B5toGRBEm
 849              		.syntax unified
 850              		.thumb
 851              		.thumb_func
 853              	_ZN7WS2812B5toGRBEm:
 854              		.fnstart
 855              	.LVL100:
 856              	.LFB90:
 229:App/WS2812B/ws2812b.cpp **** uint32_t WS2812B::toGRB(uint32_t RGB)
 230:App/WS2812B/ws2812b.cpp **** {
 857              		.loc 1 230 1 is_stmt 1 view -0
 858              		.cfi_startproc
 859              		@ args = 0, pretend = 0, frame = 0
 860              		@ frame_needed = 0, uses_anonymous_args = 0
 861              		.loc 1 230 1 is_stmt 0 view .LVU183
 862 0000 70B5     		push	{r4, r5, r6, lr}
 863              	.LCFI9:
 864              		.cfi_def_cfa_offset 16
 865              		.cfi_offset 4, -16
 866              		.cfi_offset 5, -12
 867              		.cfi_offset 6, -8
 868              		.cfi_offset 14, -4
 869 0002 0546     		mov	r5, r0
 870 0004 0E46     		mov	r6, r1
 231:App/WS2812B/ws2812b.cpp ****     uint32_t GRB = (
 871              		.loc 1 231 5 is_stmt 1 view .LVU184
 232:App/WS2812B/ws2812b.cpp ****         (uint32_t)(WS2812B::extractGreen(RGB) << 16) |
 872              		.loc 1 232 41 is_stmt 0 view .LVU185
 873 0006 FFF7FEFF 		bl	_ZN7WS2812B12extractGreenEm
 874              	.LVL101:
 875              		.loc 1 232 9 discriminator 1 view .LVU186
 876 000a 0404     		lsls	r4, r0, #16
 233:App/WS2812B/ws2812b.cpp ****         (uint32_t)(WS2812B::extractRed(RGB) << 8) |
 877              		.loc 1 233 39 view .LVU187
 878 000c 3146     		mov	r1, r6
 879 000e 2846     		mov	r0, r5
 880 0010 FFF7FEFF 		bl	_ZN7WS2812B10extractRedEm
 881              	.LVL102:
 232:App/WS2812B/ws2812b.cpp ****         (uint32_t)(WS2812B::extractGreen(RGB) << 16) |
 882              		.loc 1 232 54 view .LVU188
 883 0014 44EA0024 		orr	r4, r4, r0, lsl #8
ARM GAS  C:\Users\DARSTE~1\AppData\Local\Temp\ccKwuhjC.s 			page 22


 234:App/WS2812B/ws2812b.cpp ****         (uint32_t)(WS2812B::extractBlue(RGB) << 0)
 884              		.loc 1 234 40 view .LVU189
 885 0018 3146     		mov	r1, r6
 886 001a 2846     		mov	r0, r5
 887 001c FFF7FEFF 		bl	_ZN7WS2812B11extractBlueEm
 888              	.LVL103:
 235:App/WS2812B/ws2812b.cpp ****     );
 236:App/WS2812B/ws2812b.cpp ****     return GRB;
 889              		.loc 1 236 5 is_stmt 1 view .LVU190
 237:App/WS2812B/ws2812b.cpp **** }
 890              		.loc 1 237 1 is_stmt 0 view .LVU191
 891 0020 2043     		orrs	r0, r0, r4
 892              	.LVL104:
 893              		.loc 1 237 1 view .LVU192
 894 0022 70BD     		pop	{r4, r5, r6, pc}
 895              		.loc 1 237 1 view .LVU193
 896              		.cfi_endproc
 897              	.LFE90:
 898              		.cantunwind
 899              		.fnend
 901              		.section	.text._ZN7WS2812B12updateBufferEv,"ax",%progbits
 902              		.align	1
 903              		.global	_ZN7WS2812B12updateBufferEv
 904              		.syntax unified
 905              		.thumb
 906              		.thumb_func
 908              	_ZN7WS2812B12updateBufferEv:
 909              		.fnstart
 910              	.LVL105:
 911              	.LFB91:
 238:App/WS2812B/ws2812b.cpp **** 
 239:App/WS2812B/ws2812b.cpp **** void WS2812B::updateBuffer()
 240:App/WS2812B/ws2812b.cpp **** {
 912              		.loc 1 240 1 is_stmt 1 view -0
 913              		.cfi_startproc
 914              		@ args = 0, pretend = 0, frame = 0
 915              		@ frame_needed = 0, uses_anonymous_args = 0
 916              		.loc 1 240 1 is_stmt 0 view .LVU195
 917 0000 F8B5     		push	{r3, r4, r5, r6, r7, lr}
 918              	.LCFI10:
 919              		.cfi_def_cfa_offset 24
 920              		.cfi_offset 3, -24
 921              		.cfi_offset 4, -20
 922              		.cfi_offset 5, -16
 923              		.cfi_offset 6, -12
 924              		.cfi_offset 7, -8
 925              		.cfi_offset 14, -4
 926 0002 0546     		mov	r5, r0
 241:App/WS2812B/ws2812b.cpp ****     uint32_t bufferIndex = 0;
 927              		.loc 1 241 5 is_stmt 1 view .LVU196
 928              	.LVL106:
 242:App/WS2812B/ws2812b.cpp ****     for (uint16_t ledIterate = 0; ledIterate < _ledsCount; ledIterate++)
 929              		.loc 1 242 5 view .LVU197
 930              	.LBB13:
 931              		.loc 1 242 19 is_stmt 0 view .LVU198
 932 0004 0027     		movs	r7, #0
 933              	.LBE13:
ARM GAS  C:\Users\DARSTE~1\AppData\Local\Temp\ccKwuhjC.s 			page 23


 241:App/WS2812B/ws2812b.cpp ****     uint32_t bufferIndex = 0;
 934              		.loc 1 241 14 view .LVU199
 935 0006 3E46     		mov	r6, r7
 936              	.LBB16:
 937              		.loc 1 242 5 view .LVU200
 938 0008 16E0     		b	.L34
 939              	.LVL107:
 940              	.L35:
 941              	.LBB14:
 243:App/WS2812B/ws2812b.cpp ****         for (int8_t bitIndex = 23; bitIndex >= 0; bitIndex--)
 244:App/WS2812B/ws2812b.cpp ****         {
 245:App/WS2812B/ws2812b.cpp ****             _buffer[bufferIndex] = ((WS2812B::toGRB(_colorData[ledIterate]) >> bitIndex) & 0b1) ? _
 942              		.loc 1 245 97 discriminator 2 view .LVU201
 943 000a 6A69     		ldr	r2, [r5, #20]
 944              	.L36:
 945              		.loc 1 245 13 discriminator 4 view .LVU202
 946 000c 2B6B     		ldr	r3, [r5, #48]
 947              		.loc 1 245 34 discriminator 4 view .LVU203
 948 000e 43F82620 		str	r2, [r3, r6, lsl #2]
 246:App/WS2812B/ws2812b.cpp ****             bufferIndex++;
 949              		.loc 1 246 13 is_stmt 1 view .LVU204
 950              		.loc 1 246 24 is_stmt 0 view .LVU205
 951 0012 0136     		adds	r6, r6, #1
 952              	.LVL108:
 243:App/WS2812B/ws2812b.cpp ****         for (int8_t bitIndex = 23; bitIndex >= 0; bitIndex--)
 953              		.loc 1 243 9 is_stmt 1 discriminator 2 view .LVU206
 954 0014 013C     		subs	r4, r4, #1
 955              	.LVL109:
 243:App/WS2812B/ws2812b.cpp ****         for (int8_t bitIndex = 23; bitIndex >= 0; bitIndex--)
 956              		.loc 1 243 9 is_stmt 0 discriminator 2 view .LVU207
 957 0016 64B2     		sxtb	r4, r4
 958              	.LVL110:
 959              	.L38:
 243:App/WS2812B/ws2812b.cpp ****         for (int8_t bitIndex = 23; bitIndex >= 0; bitIndex--)
 960              		.loc 1 243 45 is_stmt 1 discriminator 1 view .LVU208
 961 0018 002C     		cmp	r4, #0
 962 001a 0BDB     		blt	.L43
 245:App/WS2812B/ws2812b.cpp ****             bufferIndex++;
 963              		.loc 1 245 13 view .LVU209
 245:App/WS2812B/ws2812b.cpp ****             bufferIndex++;
 964              		.loc 1 245 53 is_stmt 0 view .LVU210
 965 001c AB69     		ldr	r3, [r5, #24]
 245:App/WS2812B/ws2812b.cpp ****             bufferIndex++;
 966              		.loc 1 245 52 view .LVU211
 967 001e 53F82710 		ldr	r1, [r3, r7, lsl #2]
 968 0022 2846     		mov	r0, r5
 969 0024 FFF7FEFF 		bl	_ZN7WS2812B5toGRBEm
 970              	.LVL111:
 245:App/WS2812B/ws2812b.cpp ****             bufferIndex++;
 971              		.loc 1 245 77 discriminator 1 view .LVU212
 972 0028 E040     		lsrs	r0, r0, r4
 245:App/WS2812B/ws2812b.cpp ****             bufferIndex++;
 973              		.loc 1 245 97 discriminator 1 view .LVU213
 974 002a 10F0010F 		tst	r0, #1
 975 002e ECD0     		beq	.L35
 976 0030 2A69     		ldr	r2, [r5, #16]
 977 0032 EBE7     		b	.L36
ARM GAS  C:\Users\DARSTE~1\AppData\Local\Temp\ccKwuhjC.s 			page 24


 978              	.L43:
 245:App/WS2812B/ws2812b.cpp ****             bufferIndex++;
 979              		.loc 1 245 97 discriminator 1 view .LVU214
 980              	.LBE14:
 242:App/WS2812B/ws2812b.cpp ****         for (int8_t bitIndex = 23; bitIndex >= 0; bitIndex--)
 981              		.loc 1 242 5 is_stmt 1 discriminator 2 view .LVU215
 982 0034 0137     		adds	r7, r7, #1
 983              	.LVL112:
 242:App/WS2812B/ws2812b.cpp ****         for (int8_t bitIndex = 23; bitIndex >= 0; bitIndex--)
 984              		.loc 1 242 5 is_stmt 0 discriminator 2 view .LVU216
 985 0036 BFB2     		uxth	r7, r7
 986              	.LVL113:
 987              	.L34:
 242:App/WS2812B/ws2812b.cpp ****         for (int8_t bitIndex = 23; bitIndex >= 0; bitIndex--)
 988              		.loc 1 242 46 is_stmt 1 discriminator 1 view .LVU217
 242:App/WS2812B/ws2812b.cpp ****         for (int8_t bitIndex = 23; bitIndex >= 0; bitIndex--)
 989              		.loc 1 242 48 is_stmt 0 discriminator 1 view .LVU218
 990 0038 2B89     		ldrh	r3, [r5, #8]
 242:App/WS2812B/ws2812b.cpp ****         for (int8_t bitIndex = 23; bitIndex >= 0; bitIndex--)
 991              		.loc 1 242 46 discriminator 1 view .LVU219
 992 003a BB42     		cmp	r3, r7
 993 003c 06D9     		bls	.L39
 994              	.LBB15:
 243:App/WS2812B/ws2812b.cpp ****         {
 995              		.loc 1 243 21 view .LVU220
 996 003e 1724     		movs	r4, #23
 997 0040 EAE7     		b	.L38
 998              	.L40:
 243:App/WS2812B/ws2812b.cpp ****         {
 999              		.loc 1 243 21 view .LVU221
 1000              	.LBE15:
 1001              	.LBE16:
 247:App/WS2812B/ws2812b.cpp ****         }
 248:App/WS2812B/ws2812b.cpp ****     for (bufferIndex; bufferIndex < _ledsCount * 24 + WS2812B_RESET_CODE_PADDING; bufferIndex++)
 249:App/WS2812B/ws2812b.cpp ****         _buffer[bufferIndex] = 0;
 1002              		.loc 1 249 9 is_stmt 1 view .LVU222
 1003 0042 2B6B     		ldr	r3, [r5, #48]
 1004              		.loc 1 249 30 is_stmt 0 view .LVU223
 1005 0044 0022     		movs	r2, #0
 1006 0046 43F82620 		str	r2, [r3, r6, lsl #2]
 248:App/WS2812B/ws2812b.cpp ****         _buffer[bufferIndex] = 0;
 1007              		.loc 1 248 5 is_stmt 1 discriminator 2 view .LVU224
 1008 004a 0136     		adds	r6, r6, #1
 1009              	.LVL114:
 1010              	.L39:
 248:App/WS2812B/ws2812b.cpp ****         _buffer[bufferIndex] = 0;
 1011              		.loc 1 248 35 discriminator 1 view .LVU225
 248:App/WS2812B/ws2812b.cpp ****         _buffer[bufferIndex] = 0;
 1012              		.loc 1 248 37 is_stmt 0 discriminator 1 view .LVU226
 1013 004c 2B89     		ldrh	r3, [r5, #8]
 248:App/WS2812B/ws2812b.cpp ****         _buffer[bufferIndex] = 0;
 1014              		.loc 1 248 48 discriminator 1 view .LVU227
 1015 004e 03EB4303 		add	r3, r3, r3, lsl #1
 1016 0052 DB00     		lsls	r3, r3, #3
 248:App/WS2812B/ws2812b.cpp ****         _buffer[bufferIndex] = 0;
 1017              		.loc 1 248 53 discriminator 1 view .LVU228
 1018 0054 2833     		adds	r3, r3, #40
ARM GAS  C:\Users\DARSTE~1\AppData\Local\Temp\ccKwuhjC.s 			page 25


 248:App/WS2812B/ws2812b.cpp ****         _buffer[bufferIndex] = 0;
 1019              		.loc 1 248 35 discriminator 1 view .LVU229
 1020 0056 B342     		cmp	r3, r6
 1021 0058 F3D8     		bhi	.L40
 250:App/WS2812B/ws2812b.cpp **** }
 1022              		.loc 1 250 1 view .LVU230
 1023 005a F8BD     		pop	{r3, r4, r5, r6, r7, pc}
 1024              		.loc 1 250 1 view .LVU231
 1025              		.cfi_endproc
 1026              	.LFE91:
 1027              		.cantunwind
 1028              		.fnend
 1030              		.section	.text._ZN7WS2812B6renderEv,"ax",%progbits
 1031              		.align	1
 1032              		.global	_ZN7WS2812B6renderEv
 1033              		.syntax unified
 1034              		.thumb
 1035              		.thumb_func
 1037              	_ZN7WS2812B6renderEv:
 1038              		.fnstart
 1039              	.LVL115:
 1040              	.LFB81:
  94:App/WS2812B/ws2812b.cpp ****     memcpy(_colorData, _targetColorData, _ledsCount * 4);
 1041              		.loc 1 94 1 is_stmt 1 view -0
 1042              		.cfi_startproc
 1043              		@ args = 0, pretend = 0, frame = 0
 1044              		@ frame_needed = 0, uses_anonymous_args = 0
  94:App/WS2812B/ws2812b.cpp ****     memcpy(_colorData, _targetColorData, _ledsCount * 4);
 1045              		.loc 1 94 1 is_stmt 0 view .LVU233
 1046 0000 10B5     		push	{r4, lr}
 1047              		.save {r4, lr}
 1048              	.LCFI11:
 1049              		.cfi_def_cfa_offset 8
 1050              		.cfi_offset 4, -8
 1051              		.cfi_offset 14, -4
 1052 0002 0446     		mov	r4, r0
  95:App/WS2812B/ws2812b.cpp ****     WS2812B::updateBuffer();
 1053              		.loc 1 95 5 is_stmt 1 view .LVU234
  95:App/WS2812B/ws2812b.cpp ****     WS2812B::updateBuffer();
 1054              		.loc 1 95 42 is_stmt 0 view .LVU235
 1055 0004 0289     		ldrh	r2, [r0, #8]
  95:App/WS2812B/ws2812b.cpp ****     WS2812B::updateBuffer();
 1056              		.loc 1 95 11 view .LVU236
 1057 0006 9200     		lsls	r2, r2, #2
 1058 0008 C169     		ldr	r1, [r0, #28]
 1059 000a 8069     		ldr	r0, [r0, #24]
 1060              	.LVL116:
  95:App/WS2812B/ws2812b.cpp ****     WS2812B::updateBuffer();
 1061              		.loc 1 95 11 view .LVU237
 1062 000c FFF7FEFF 		bl	memcpy
 1063              	.LVL117:
  96:App/WS2812B/ws2812b.cpp **** 
 1064              		.loc 1 96 5 is_stmt 1 view .LVU238
  96:App/WS2812B/ws2812b.cpp **** 
 1065              		.loc 1 96 26 is_stmt 0 view .LVU239
 1066 0010 2046     		mov	r0, r4
 1067 0012 FFF7FEFF 		bl	_ZN7WS2812B12updateBufferEv
ARM GAS  C:\Users\DARSTE~1\AppData\Local\Temp\ccKwuhjC.s 			page 26


 1068              	.LVL118:
  98:App/WS2812B/ws2812b.cpp ****         _PWMgenerator, _channel,
 1069              		.loc 1 98 5 is_stmt 1 view .LVU240
 101:App/WS2812B/ws2812b.cpp ****     );
 1070              		.loc 1 101 9 is_stmt 0 view .LVU241
 1071 0016 2389     		ldrh	r3, [r4, #8]
 101:App/WS2812B/ws2812b.cpp ****     );
 1072              		.loc 1 101 22 view .LVU242
 1073 0018 94F83420 		ldrb	r2, [r4, #52]	@ zero_extendqisi2
  98:App/WS2812B/ws2812b.cpp ****         _PWMgenerator, _channel,
 1074              		.loc 1 98 26 view .LVU243
 1075 001c 02FB03F3 		mul	r3, r2, r3
 1076 0020 9BB2     		uxth	r3, r3
 1077 0022 226B     		ldr	r2, [r4, #48]
 1078 0024 E168     		ldr	r1, [r4, #12]
 1079 0026 6068     		ldr	r0, [r4, #4]
 1080 0028 FFF7FEFF 		bl	HAL_TIM_PWM_Start_DMA
 1081              	.LVL119:
 104:App/WS2812B/ws2812b.cpp ****     while (UPDATE_STATE == WS2812B_UPDATE_ONGOING);
 1082              		.loc 1 104 5 is_stmt 1 view .LVU244
 104:App/WS2812B/ws2812b.cpp ****     while (UPDATE_STATE == WS2812B_UPDATE_ONGOING);
 1083              		.loc 1 104 18 is_stmt 0 view .LVU245
 1084 002c 0023     		movs	r3, #0
 1085 002e 2370     		strb	r3, [r4]
 105:App/WS2812B/ws2812b.cpp **** }
 1086              		.loc 1 105 5 is_stmt 1 view .LVU246
 1087              	.L45:
 105:App/WS2812B/ws2812b.cpp **** }
 1088              		.loc 1 105 25 discriminator 1 view .LVU247
 105:App/WS2812B/ws2812b.cpp **** }
 1089              		.loc 1 105 12 is_stmt 0 discriminator 1 view .LVU248
 1090 0030 2378     		ldrb	r3, [r4]	@ zero_extendqisi2
 105:App/WS2812B/ws2812b.cpp **** }
 1091              		.loc 1 105 25 discriminator 1 view .LVU249
 1092 0032 002B     		cmp	r3, #0
 1093 0034 FCD0     		beq	.L45
 106:App/WS2812B/ws2812b.cpp **** 
 1094              		.loc 1 106 1 view .LVU250
 1095 0036 10BD     		pop	{r4, pc}
 106:App/WS2812B/ws2812b.cpp **** 
 1096              		.loc 1 106 1 view .LVU251
 1097              		.cfi_endproc
 1098              	.LFE81:
 1099              		.fnend
 1101              		.section	.text._ZN7WS2812B10transitionEv,"ax",%progbits
 1102              		.align	1
 1103              		.global	_ZN7WS2812B10transitionEv
 1104              		.syntax unified
 1105              		.thumb
 1106              		.thumb_func
 1108              	_ZN7WS2812B10transitionEv:
 1109              		.fnstart
 1110              	.LVL120:
 1111              	.LFB82:
 109:App/WS2812B/ws2812b.cpp ****     uint16_t checkDifference = 0;
 1112              		.loc 1 109 1 is_stmt 1 view -0
 1113              		.cfi_startproc
ARM GAS  C:\Users\DARSTE~1\AppData\Local\Temp\ccKwuhjC.s 			page 27


 1114              		@ args = 0, pretend = 0, frame = 16
 1115              		@ frame_needed = 0, uses_anonymous_args = 0
 109:App/WS2812B/ws2812b.cpp ****     uint16_t checkDifference = 0;
 1116              		.loc 1 109 1 is_stmt 0 view .LVU253
 1117 0000 2DE9F04F 		push	{r4, r5, r6, r7, r8, r9, r10, fp, lr}
 1118              		.save {r4, r5, r6, r7, r8, r9, r10, fp, lr}
 1119              	.LCFI12:
 1120              		.cfi_def_cfa_offset 36
 1121              		.cfi_offset 4, -36
 1122              		.cfi_offset 5, -32
 1123              		.cfi_offset 6, -28
 1124              		.cfi_offset 7, -24
 1125              		.cfi_offset 8, -20
 1126              		.cfi_offset 9, -16
 1127              		.cfi_offset 10, -12
 1128              		.cfi_offset 11, -8
 1129              		.cfi_offset 14, -4
 1130              		.pad #20
 1131 0004 85B0     		sub	sp, sp, #20
 1132              	.LCFI13:
 1133              		.cfi_def_cfa_offset 56
 1134 0006 0446     		mov	r4, r0
 110:App/WS2812B/ws2812b.cpp ****     for (uint16_t ledIterate = 0; ledIterate < _ledsCount; ledIterate++)
 1135              		.loc 1 110 5 is_stmt 1 view .LVU254
 1136              	.LVL121:
 111:App/WS2812B/ws2812b.cpp ****     {
 1137              		.loc 1 111 5 view .LVU255
 1138              	.LBB17:
 111:App/WS2812B/ws2812b.cpp ****     {
 1139              		.loc 1 111 19 is_stmt 0 view .LVU256
 1140 0008 0025     		movs	r5, #0
 1141              	.LBE17:
 110:App/WS2812B/ws2812b.cpp ****     for (uint16_t ledIterate = 0; ledIterate < _ledsCount; ledIterate++)
 1142              		.loc 1 110 14 view .LVU257
 1143 000a 0395     		str	r5, [sp, #12]
 1144              	.LBB20:
 111:App/WS2812B/ws2812b.cpp ****     {
 1145              		.loc 1 111 5 view .LVU258
 1146 000c 1EE0     		b	.L48
 1147              	.LVL122:
 1148              	.L63:
 1149              	.LBB18:
 115:App/WS2812B/ws2812b.cpp ****             continue;
 1150              		.loc 1 115 13 is_stmt 1 view .LVU259
 115:App/WS2812B/ws2812b.cpp ****             continue;
 1151              		.loc 1 115 28 is_stmt 0 view .LVU260
 1152 000e 039B     		ldr	r3, [sp, #12]
 1153 0010 0133     		adds	r3, r3, #1
 1154 0012 9BB2     		uxth	r3, r3
 1155 0014 0393     		str	r3, [sp, #12]
 1156              	.LVL123:
 116:App/WS2812B/ws2812b.cpp ****         }
 1157              		.loc 1 116 13 is_stmt 1 view .LVU261
 1158 0016 17E0     		b	.L50
 1159              	.LVL124:
 1160              	.L51:
 128:App/WS2812B/ws2812b.cpp **** 
ARM GAS  C:\Users\DARSTE~1\AppData\Local\Temp\ccKwuhjC.s 			page 28


 1161              		.loc 1 128 14 view .LVU262
 1162 0018 019B     		ldr	r3, [sp, #4]
 1163 001a 9E42     		cmp	r6, r3
 1164 001c 01D9     		bls	.L52
 128:App/WS2812B/ws2812b.cpp **** 
 1165              		.loc 1 128 42 discriminator 1 view .LVU263
 128:App/WS2812B/ws2812b.cpp **** 
 1166              		.loc 1 128 52 is_stmt 0 discriminator 1 view .LVU264
 1167 001e 013E     		subs	r6, r6, #1
 1168              	.LVL125:
 128:App/WS2812B/ws2812b.cpp **** 
 1169              		.loc 1 128 52 discriminator 1 view .LVU265
 1170 0020 F6B2     		uxtb	r6, r6
 1171              	.LVL126:
 1172              	.L52:
 130:App/WS2812B/ws2812b.cpp ****         else if (currentGreen > targetGreen) currentGreen--;
 1173              		.loc 1 130 9 is_stmt 1 view .LVU266
 1174 0022 029B     		ldr	r3, [sp, #8]
 1175 0024 9F42     		cmp	r7, r3
 1176 0026 42D2     		bcs	.L53
 130:App/WS2812B/ws2812b.cpp ****         else if (currentGreen > targetGreen) currentGreen--;
 1177              		.loc 1 130 41 discriminator 1 view .LVU267
 130:App/WS2812B/ws2812b.cpp ****         else if (currentGreen > targetGreen) currentGreen--;
 1178              		.loc 1 130 53 is_stmt 0 discriminator 1 view .LVU268
 1179 0028 0137     		adds	r7, r7, #1
 1180              	.LVL127:
 130:App/WS2812B/ws2812b.cpp ****         else if (currentGreen > targetGreen) currentGreen--;
 1181              		.loc 1 130 53 discriminator 1 view .LVU269
 1182 002a FFB2     		uxtb	r7, r7
 1183              	.LVL128:
 1184              	.L54:
 133:App/WS2812B/ws2812b.cpp ****         else if (currentBlue > targetBlue) currentBlue--;
 1185              		.loc 1 133 9 is_stmt 1 view .LVU270
 1186 002c 8045     		cmp	r8, r0
 1187 002e 44D2     		bcs	.L55
 133:App/WS2812B/ws2812b.cpp ****         else if (currentBlue > targetBlue) currentBlue--;
 1188              		.loc 1 133 39 discriminator 1 view .LVU271
 133:App/WS2812B/ws2812b.cpp ****         else if (currentBlue > targetBlue) currentBlue--;
 1189              		.loc 1 133 50 is_stmt 0 discriminator 1 view .LVU272
 1190 0030 08F10108 		add	r8, r8, #1
 1191              	.LVL129:
 133:App/WS2812B/ws2812b.cpp ****         else if (currentBlue > targetBlue) currentBlue--;
 1192              		.loc 1 133 50 discriminator 1 view .LVU273
 1193 0034 5FFA88F8 		uxtb	r8, r8
 1194              	.LVL130:
 1195              	.L56:
 136:App/WS2812B/ws2812b.cpp ****     }
 1196              		.loc 1 136 9 is_stmt 1 view .LVU274
 136:App/WS2812B/ws2812b.cpp ****     }
 1197              		.loc 1 136 53 is_stmt 0 view .LVU275
 1198 0038 4346     		mov	r3, r8
 1199 003a 3A46     		mov	r2, r7
 1200 003c 3146     		mov	r1, r6
 1201 003e 2046     		mov	r0, r4
 1202              	.LVL131:
 136:App/WS2812B/ws2812b.cpp ****     }
 1203              		.loc 1 136 53 view .LVU276
ARM GAS  C:\Users\DARSTE~1\AppData\Local\Temp\ccKwuhjC.s 			page 29


 1204 0040 FFF7FEFF 		bl	_ZN7WS2812B10combineRGBEhhh
 1205              	.LVL132:
 136:App/WS2812B/ws2812b.cpp ****     }
 1206              		.loc 1 136 32 discriminator 1 view .LVU277
 1207 0044 4AF80B00 		str	r0, [r10, fp]
 1208              	.LVL133:
 1209              	.L50:
 136:App/WS2812B/ws2812b.cpp ****     }
 1210              		.loc 1 136 32 discriminator 1 view .LVU278
 1211              	.LBE18:
 111:App/WS2812B/ws2812b.cpp ****     {
 1212              		.loc 1 111 5 is_stmt 1 discriminator 2 view .LVU279
 1213 0048 0135     		adds	r5, r5, #1
 1214              	.LVL134:
 111:App/WS2812B/ws2812b.cpp ****     {
 1215              		.loc 1 111 5 is_stmt 0 discriminator 2 view .LVU280
 1216 004a ADB2     		uxth	r5, r5
 1217              	.LVL135:
 1218              	.L48:
 111:App/WS2812B/ws2812b.cpp ****     {
 1219              		.loc 1 111 46 is_stmt 1 discriminator 1 view .LVU281
 111:App/WS2812B/ws2812b.cpp ****     {
 1220              		.loc 1 111 48 is_stmt 0 discriminator 1 view .LVU282
 1221 004c 2389     		ldrh	r3, [r4, #8]
 111:App/WS2812B/ws2812b.cpp ****     {
 1222              		.loc 1 111 46 discriminator 1 view .LVU283
 1223 004e AB42     		cmp	r3, r5
 1224 0050 3AD9     		bls	.L62
 1225              	.LBB19:
 113:App/WS2812B/ws2812b.cpp ****         {
 1226              		.loc 1 113 9 is_stmt 1 view .LVU284
 113:App/WS2812B/ws2812b.cpp ****         {
 1227              		.loc 1 113 13 is_stmt 0 view .LVU285
 1228 0052 D4F818A0 		ldr	r10, [r4, #24]
 113:App/WS2812B/ws2812b.cpp ****         {
 1229              		.loc 1 113 34 view .LVU286
 1230 0056 4FEA850B 		lsl	fp, r5, #2
 1231 005a 5AF82580 		ldr	r8, [r10, r5, lsl #2]
 113:App/WS2812B/ws2812b.cpp ****         {
 1232              		.loc 1 113 39 view .LVU287
 1233 005e E369     		ldr	r3, [r4, #28]
 113:App/WS2812B/ws2812b.cpp ****         {
 1234              		.loc 1 113 66 view .LVU288
 1235 0060 53F82590 		ldr	r9, [r3, r5, lsl #2]
 113:App/WS2812B/ws2812b.cpp ****         {
 1236              		.loc 1 113 9 view .LVU289
 1237 0064 C845     		cmp	r8, r9
 1238 0066 D2D0     		beq	.L63
 119:App/WS2812B/ws2812b.cpp ****         uint8_t currentGreen = WS2812B::extractGreen(_colorData[ledIterate]);
 1239              		.loc 1 119 9 is_stmt 1 view .LVU290
 119:App/WS2812B/ws2812b.cpp ****         uint8_t currentGreen = WS2812B::extractGreen(_colorData[ledIterate]);
 1240              		.loc 1 119 49 is_stmt 0 view .LVU291
 1241 0068 4146     		mov	r1, r8
 1242 006a 2046     		mov	r0, r4
 1243 006c FFF7FEFF 		bl	_ZN7WS2812B10extractRedEm
 1244              	.LVL136:
 1245 0070 0646     		mov	r6, r0
ARM GAS  C:\Users\DARSTE~1\AppData\Local\Temp\ccKwuhjC.s 			page 30


 1246              	.LVL137:
 120:App/WS2812B/ws2812b.cpp ****         uint8_t currentBlue = WS2812B::extractBlue(_colorData[ledIterate]);
 1247              		.loc 1 120 9 is_stmt 1 view .LVU292
 120:App/WS2812B/ws2812b.cpp ****         uint8_t currentBlue = WS2812B::extractBlue(_colorData[ledIterate]);
 1248              		.loc 1 120 53 is_stmt 0 view .LVU293
 1249 0072 4146     		mov	r1, r8
 1250 0074 2046     		mov	r0, r4
 1251 0076 FFF7FEFF 		bl	_ZN7WS2812B12extractGreenEm
 1252              	.LVL138:
 1253 007a 0746     		mov	r7, r0
 1254              	.LVL139:
 121:App/WS2812B/ws2812b.cpp **** 
 1255              		.loc 1 121 9 is_stmt 1 view .LVU294
 121:App/WS2812B/ws2812b.cpp **** 
 1256              		.loc 1 121 51 is_stmt 0 view .LVU295
 1257 007c 4146     		mov	r1, r8
 1258 007e 2046     		mov	r0, r4
 1259 0080 FFF7FEFF 		bl	_ZN7WS2812B11extractBlueEm
 1260              	.LVL140:
 1261 0084 8046     		mov	r8, r0
 1262              	.LVL141:
 123:App/WS2812B/ws2812b.cpp ****         uint8_t targetGreen = WS2812B::extractGreen(_targetColorData[ledIterate]);
 1263              		.loc 1 123 9 is_stmt 1 view .LVU296
 123:App/WS2812B/ws2812b.cpp ****         uint8_t targetGreen = WS2812B::extractGreen(_targetColorData[ledIterate]);
 1264              		.loc 1 123 48 is_stmt 0 view .LVU297
 1265 0086 4946     		mov	r1, r9
 1266 0088 2046     		mov	r0, r4
 1267 008a FFF7FEFF 		bl	_ZN7WS2812B10extractRedEm
 1268              	.LVL142:
 1269 008e 0190     		str	r0, [sp, #4]
 1270              	.LVL143:
 124:App/WS2812B/ws2812b.cpp ****         uint8_t targetBlue = WS2812B::extractBlue(_targetColorData[ledIterate]);
 1271              		.loc 1 124 9 is_stmt 1 view .LVU298
 124:App/WS2812B/ws2812b.cpp ****         uint8_t targetBlue = WS2812B::extractBlue(_targetColorData[ledIterate]);
 1272              		.loc 1 124 52 is_stmt 0 view .LVU299
 1273 0090 4946     		mov	r1, r9
 1274 0092 2046     		mov	r0, r4
 1275 0094 FFF7FEFF 		bl	_ZN7WS2812B12extractGreenEm
 1276              	.LVL144:
 1277 0098 0290     		str	r0, [sp, #8]
 1278              	.LVL145:
 125:App/WS2812B/ws2812b.cpp **** 
 1279              		.loc 1 125 9 is_stmt 1 view .LVU300
 125:App/WS2812B/ws2812b.cpp **** 
 1280              		.loc 1 125 50 is_stmt 0 view .LVU301
 1281 009a 4946     		mov	r1, r9
 1282 009c 2046     		mov	r0, r4
 1283 009e FFF7FEFF 		bl	_ZN7WS2812B11extractBlueEm
 1284              	.LVL146:
 127:App/WS2812B/ws2812b.cpp ****         else if (currentRed > targetRed) currentRed--;
 1285              		.loc 1 127 9 is_stmt 1 view .LVU302
 1286 00a2 019B     		ldr	r3, [sp, #4]
 1287 00a4 9E42     		cmp	r6, r3
 1288 00a6 B7D2     		bcs	.L51
 127:App/WS2812B/ws2812b.cpp ****         else if (currentRed > targetRed) currentRed--;
 1289              		.loc 1 127 37 discriminator 1 view .LVU303
 127:App/WS2812B/ws2812b.cpp ****         else if (currentRed > targetRed) currentRed--;
ARM GAS  C:\Users\DARSTE~1\AppData\Local\Temp\ccKwuhjC.s 			page 31


 1290              		.loc 1 127 47 is_stmt 0 discriminator 1 view .LVU304
 1291 00a8 0136     		adds	r6, r6, #1
 1292              	.LVL147:
 127:App/WS2812B/ws2812b.cpp ****         else if (currentRed > targetRed) currentRed--;
 1293              		.loc 1 127 47 discriminator 1 view .LVU305
 1294 00aa F6B2     		uxtb	r6, r6
 1295              	.LVL148:
 127:App/WS2812B/ws2812b.cpp ****         else if (currentRed > targetRed) currentRed--;
 1296              		.loc 1 127 47 discriminator 1 view .LVU306
 1297 00ac B9E7     		b	.L52
 1298              	.L53:
 131:App/WS2812B/ws2812b.cpp **** 
 1299              		.loc 1 131 14 is_stmt 1 view .LVU307
 1300 00ae 029B     		ldr	r3, [sp, #8]
 1301 00b0 9F42     		cmp	r7, r3
 1302 00b2 BBD9     		bls	.L54
 131:App/WS2812B/ws2812b.cpp **** 
 1303              		.loc 1 131 46 discriminator 1 view .LVU308
 131:App/WS2812B/ws2812b.cpp **** 
 1304              		.loc 1 131 58 is_stmt 0 discriminator 1 view .LVU309
 1305 00b4 013F     		subs	r7, r7, #1
 1306              	.LVL149:
 131:App/WS2812B/ws2812b.cpp **** 
 1307              		.loc 1 131 58 discriminator 1 view .LVU310
 1308 00b6 FFB2     		uxtb	r7, r7
 1309              	.LVL150:
 131:App/WS2812B/ws2812b.cpp **** 
 1310              		.loc 1 131 58 discriminator 1 view .LVU311
 1311 00b8 B8E7     		b	.L54
 1312              	.L55:
 134:App/WS2812B/ws2812b.cpp **** 
 1313              		.loc 1 134 14 is_stmt 1 view .LVU312
 1314 00ba 8045     		cmp	r8, r0
 1315 00bc BCD9     		bls	.L56
 134:App/WS2812B/ws2812b.cpp **** 
 1316              		.loc 1 134 44 discriminator 1 view .LVU313
 134:App/WS2812B/ws2812b.cpp **** 
 1317              		.loc 1 134 55 is_stmt 0 discriminator 1 view .LVU314
 1318 00be 08F1FF38 		add	r8, r8, #-1
 1319              	.LVL151:
 134:App/WS2812B/ws2812b.cpp **** 
 1320              		.loc 1 134 55 discriminator 1 view .LVU315
 1321 00c2 5FFA88F8 		uxtb	r8, r8
 1322              	.LVL152:
 134:App/WS2812B/ws2812b.cpp **** 
 1323              		.loc 1 134 55 discriminator 1 view .LVU316
 1324 00c6 B7E7     		b	.L56
 1325              	.LVL153:
 1326              	.L62:
 134:App/WS2812B/ws2812b.cpp **** 
 1327              		.loc 1 134 55 discriminator 1 view .LVU317
 1328              	.LBE19:
 1329              	.LBE20:
 139:App/WS2812B/ws2812b.cpp ****         return WS2812B_TRANSITION_FINISHED;
 1330              		.loc 1 139 5 is_stmt 1 view .LVU318
 1331 00c8 039A     		ldr	r2, [sp, #12]
 1332 00ca 9342     		cmp	r3, r2
ARM GAS  C:\Users\DARSTE~1\AppData\Local\Temp\ccKwuhjC.s 			page 32


 1333 00cc 16D0     		beq	.L60
 142:App/WS2812B/ws2812b.cpp **** 
 1334              		.loc 1 142 5 view .LVU319
 142:App/WS2812B/ws2812b.cpp **** 
 1335              		.loc 1 142 26 is_stmt 0 view .LVU320
 1336 00ce 2046     		mov	r0, r4
 1337 00d0 FFF7FEFF 		bl	_ZN7WS2812B12updateBufferEv
 1338              	.LVL154:
 144:App/WS2812B/ws2812b.cpp ****         _PWMgenerator, _channel,
 1339              		.loc 1 144 5 is_stmt 1 view .LVU321
 147:App/WS2812B/ws2812b.cpp ****     );
 1340              		.loc 1 147 9 is_stmt 0 view .LVU322
 1341 00d4 2389     		ldrh	r3, [r4, #8]
 147:App/WS2812B/ws2812b.cpp ****     );
 1342              		.loc 1 147 22 view .LVU323
 1343 00d6 94F83420 		ldrb	r2, [r4, #52]	@ zero_extendqisi2
 144:App/WS2812B/ws2812b.cpp ****         _PWMgenerator, _channel,
 1344              		.loc 1 144 26 view .LVU324
 1345 00da 02FB03F3 		mul	r3, r2, r3
 1346 00de 9BB2     		uxth	r3, r3
 1347 00e0 226B     		ldr	r2, [r4, #48]
 1348 00e2 E168     		ldr	r1, [r4, #12]
 1349 00e4 6068     		ldr	r0, [r4, #4]
 1350 00e6 FFF7FEFF 		bl	HAL_TIM_PWM_Start_DMA
 1351              	.LVL155:
 150:App/WS2812B/ws2812b.cpp ****     while (UPDATE_STATE == WS2812B_UPDATE_ONGOING);
 1352              		.loc 1 150 5 is_stmt 1 view .LVU325
 150:App/WS2812B/ws2812b.cpp ****     while (UPDATE_STATE == WS2812B_UPDATE_ONGOING);
 1353              		.loc 1 150 18 is_stmt 0 view .LVU326
 1354 00ea 0023     		movs	r3, #0
 1355 00ec 2370     		strb	r3, [r4]
 151:App/WS2812B/ws2812b.cpp **** 
 1356              		.loc 1 151 5 is_stmt 1 view .LVU327
 1357              	.L59:
 151:App/WS2812B/ws2812b.cpp **** 
 1358              		.loc 1 151 25 discriminator 1 view .LVU328
 151:App/WS2812B/ws2812b.cpp **** 
 1359              		.loc 1 151 12 is_stmt 0 discriminator 1 view .LVU329
 1360 00ee 2378     		ldrb	r3, [r4]	@ zero_extendqisi2
 151:App/WS2812B/ws2812b.cpp **** 
 1361              		.loc 1 151 25 discriminator 1 view .LVU330
 1362 00f0 002B     		cmp	r3, #0
 1363 00f2 FCD0     		beq	.L59
 153:App/WS2812B/ws2812b.cpp **** }
 1364              		.loc 1 153 28 view .LVU331
 1365 00f4 0020     		movs	r0, #0
 1366              	.L58:
 154:App/WS2812B/ws2812b.cpp **** 
 1367              		.loc 1 154 1 view .LVU332
 1368 00f6 05B0     		add	sp, sp, #20
 1369              	.LCFI14:
 1370              		.cfi_remember_state
 1371              		.cfi_def_cfa_offset 36
 1372              		@ sp needed
 1373 00f8 BDE8F08F 		pop	{r4, r5, r6, r7, r8, r9, r10, fp, pc}
 1374              	.LVL156:
 1375              	.L60:
ARM GAS  C:\Users\DARSTE~1\AppData\Local\Temp\ccKwuhjC.s 			page 33


 1376              	.LCFI15:
 1377              		.cfi_restore_state
 140:App/WS2812B/ws2812b.cpp **** 
 1378              		.loc 1 140 16 view .LVU333
 1379 00fc 0120     		movs	r0, #1
 1380 00fe FAE7     		b	.L58
 1381              		.cfi_endproc
 1382              	.LFE82:
 1383              		.fnend
 1385              		.global	__aeabi_fcmpgt
 1386              		.global	__aeabi_fcmple
 1387              		.global	__aeabi_fcmpeq
 1388              		.section	.text._ZN7WS2812B10transitionEPff,"ax",%progbits
 1389              		.align	1
 1390              		.global	_ZN7WS2812B10transitionEPff
 1391              		.syntax unified
 1392              		.thumb
 1393              		.thumb_func
 1395              	_ZN7WS2812B10transitionEPff:
 1396              		.fnstart
 1397              	.LVL157:
 1398              	.LFB83:
 157:App/WS2812B/ws2812b.cpp ****     if (*timeTick > duration)
 1399              		.loc 1 157 1 is_stmt 1 view -0
 1400              		.cfi_startproc
 1401              		@ args = 0, pretend = 0, frame = 0
 1402              		@ frame_needed = 0, uses_anonymous_args = 0
 157:App/WS2812B/ws2812b.cpp ****     if (*timeTick > duration)
 1403              		.loc 1 157 1 is_stmt 0 view .LVU335
 1404 0000 2DE9F84F 		push	{r3, r4, r5, r6, r7, r8, r9, r10, fp, lr}
 1405              		.save {r3, r4, r5, r6, r7, r8, r9, r10, fp, lr}
 1406              	.LCFI16:
 1407              		.cfi_def_cfa_offset 40
 1408              		.cfi_offset 3, -40
 1409              		.cfi_offset 4, -36
 1410              		.cfi_offset 5, -32
 1411              		.cfi_offset 6, -28
 1412              		.cfi_offset 7, -24
 1413              		.cfi_offset 8, -20
 1414              		.cfi_offset 9, -16
 1415              		.cfi_offset 10, -12
 1416              		.cfi_offset 11, -8
 1417              		.cfi_offset 14, -4
 1418 0004 0446     		mov	r4, r0
 1419 0006 8946     		mov	r9, r1
 1420 0008 1646     		mov	r6, r2
 158:App/WS2812B/ws2812b.cpp ****     {
 1421              		.loc 1 158 5 is_stmt 1 view .LVU336
 158:App/WS2812B/ws2812b.cpp ****     {
 1422              		.loc 1 158 9 is_stmt 0 view .LVU337
 1423 000a 0D68     		ldr	r5, [r1]	@ float
 158:App/WS2812B/ws2812b.cpp ****     {
 1424              		.loc 1 158 5 view .LVU338
 1425 000c 1146     		mov	r1, r2
 1426              	.LVL158:
 158:App/WS2812B/ws2812b.cpp ****     {
 1427              		.loc 1 158 5 view .LVU339
ARM GAS  C:\Users\DARSTE~1\AppData\Local\Temp\ccKwuhjC.s 			page 34


 1428 000e 2846     		mov	r0, r5
 1429              	.LVL159:
 158:App/WS2812B/ws2812b.cpp ****     {
 1430              		.loc 1 158 5 view .LVU340
 1431 0010 FFF7FEFF 		bl	__aeabi_fcmpgt
 1432              	.LVL160:
 158:App/WS2812B/ws2812b.cpp ****     {
 1433              		.loc 1 158 5 view .LVU341
 1434 0014 68B9     		cbnz	r0, .L82
 165:App/WS2812B/ws2812b.cpp ****         return WS2812B_TRANSITION_FINISHED;
 1435              		.loc 1 165 5 is_stmt 1 view .LVU342
 1436 0016 0021     		movs	r1, #0
 1437 0018 3046     		mov	r0, r6
 1438 001a FFF7FEFF 		bl	__aeabi_fcmple
 1439              	.LVL161:
 1440 001e 0028     		cmp	r0, #0
 1441 0020 40F01881 		bne	.L77
 168:App/WS2812B/ws2812b.cpp ****     {
 1442              		.loc 1 168 5 view .LVU343
 1443              	.LBB21:
 1444 0024 0021     		movs	r1, #0
 1445 0026 2846     		mov	r0, r5
 1446 0028 FFF7FEFF 		bl	__aeabi_fcmpeq
 1447              	.LVL162:
 1448 002c 78B9     		cbnz	r0, .L83
 1449              	.L68:
 1450              	.LBB22:
 1451              	.LBB23:
 184:App/WS2812B/ws2812b.cpp ****             _prevColorData[ledIterate] = _colorData[ledIterate];
 1452              		.loc 1 184 23 is_stmt 0 view .LVU344
 1453 002e 0025     		movs	r5, #0
 1454 0030 F7E0     		b	.L74
 1455              	.L82:
 1456              	.LBE23:
 1457              	.LBE22:
 1458              	.LBE21:
 160:App/WS2812B/ws2812b.cpp ****         free(_prevColorData);
 1459              		.loc 1 160 9 is_stmt 1 view .LVU345
 160:App/WS2812B/ws2812b.cpp ****         free(_prevColorData);
 1460              		.loc 1 160 13 is_stmt 0 view .LVU346
 1461 0032 606A     		ldr	r0, [r4, #36]
 1462 0034 FFF7FEFF 		bl	free
 1463              	.LVL163:
 160:App/WS2812B/ws2812b.cpp ****         free(_prevColorData);
 1464              		.loc 1 160 26 is_stmt 1 discriminator 1 view .LVU347
 160:App/WS2812B/ws2812b.cpp ****         free(_prevColorData);
 1465              		.loc 1 160 30 is_stmt 0 discriminator 1 view .LVU348
 1466 0038 A06A     		ldr	r0, [r4, #40]
 1467 003a FFF7FEFF 		bl	free
 1468              	.LVL164:
 160:App/WS2812B/ws2812b.cpp ****         free(_prevColorData);
 1469              		.loc 1 160 45 is_stmt 1 discriminator 2 view .LVU349
 160:App/WS2812B/ws2812b.cpp ****         free(_prevColorData);
 1470              		.loc 1 160 49 is_stmt 0 discriminator 2 view .LVU350
 1471 003e E06A     		ldr	r0, [r4, #44]
 1472 0040 FFF7FEFF 		bl	free
 1473              	.LVL165:
ARM GAS  C:\Users\DARSTE~1\AppData\Local\Temp\ccKwuhjC.s 			page 35


 161:App/WS2812B/ws2812b.cpp ****         return WS2812B_TRANSITION_FINISHED;
 1474              		.loc 1 161 9 is_stmt 1 view .LVU351
 161:App/WS2812B/ws2812b.cpp ****         return WS2812B_TRANSITION_FINISHED;
 1475              		.loc 1 161 13 is_stmt 0 view .LVU352
 1476 0044 206A     		ldr	r0, [r4, #32]
 1477 0046 FFF7FEFF 		bl	free
 1478              	.LVL166:
 162:App/WS2812B/ws2812b.cpp ****     }
 1479              		.loc 1 162 9 is_stmt 1 view .LVU353
 162:App/WS2812B/ws2812b.cpp ****     }
 1480              		.loc 1 162 16 is_stmt 0 view .LVU354
 1481 004a 0120     		movs	r0, #1
 1482 004c 00E1     		b	.L67
 1483              	.L83:
 1484              	.LBB27:
 1485              	.LBB26:
 170:App/WS2812B/ws2812b.cpp ****         _transRed = (float *)calloc(_ledsCount, sizeof(uint32_t));
 1486              		.loc 1 170 9 is_stmt 1 view .LVU355
 170:App/WS2812B/ws2812b.cpp ****         _transRed = (float *)calloc(_ledsCount, sizeof(uint32_t));
 1487              		.loc 1 170 42 is_stmt 0 view .LVU356
 1488 004e 8249     		ldr	r1, .L84
 1489 0050 3046     		mov	r0, r6
 1490 0052 FFF7FEFF 		bl	__aeabi_fdiv
 1491              	.LVL167:
 1492 0056 0146     		mov	r1, r0
 170:App/WS2812B/ws2812b.cpp ****         _transRed = (float *)calloc(_ledsCount, sizeof(uint32_t));
 1493              		.loc 1 170 31 view .LVU357
 1494 0058 2846     		mov	r0, r5
 1495 005a FFF7FEFF 		bl	__aeabi_fadd
 1496              	.LVL168:
 170:App/WS2812B/ws2812b.cpp ****         _transRed = (float *)calloc(_ledsCount, sizeof(uint32_t));
 1497              		.loc 1 170 19 view .LVU358
 1498 005e C9F80000 		str	r0, [r9]	@ float
 171:App/WS2812B/ws2812b.cpp ****         _transGreen = (float *)calloc(_ledsCount, sizeof(uint32_t));
 1499              		.loc 1 171 9 is_stmt 1 view .LVU359
 171:App/WS2812B/ws2812b.cpp ****         _transGreen = (float *)calloc(_ledsCount, sizeof(uint32_t));
 1500              		.loc 1 171 37 is_stmt 0 view .LVU360
 1501 0062 2589     		ldrh	r5, [r4, #8]
 171:App/WS2812B/ws2812b.cpp ****         _transGreen = (float *)calloc(_ledsCount, sizeof(uint32_t));
 1502              		.loc 1 171 36 view .LVU361
 1503 0064 0421     		movs	r1, #4
 1504 0066 2846     		mov	r0, r5
 1505 0068 FFF7FEFF 		bl	calloc
 1506              	.LVL169:
 171:App/WS2812B/ws2812b.cpp ****         _transGreen = (float *)calloc(_ledsCount, sizeof(uint32_t));
 1507              		.loc 1 171 19 discriminator 1 view .LVU362
 1508 006c 6062     		str	r0, [r4, #36]
 172:App/WS2812B/ws2812b.cpp ****         _transBlue = (float *)calloc(_ledsCount, sizeof(uint32_t));
 1509              		.loc 1 172 9 is_stmt 1 view .LVU363
 172:App/WS2812B/ws2812b.cpp ****         _transBlue = (float *)calloc(_ledsCount, sizeof(uint32_t));
 1510              		.loc 1 172 38 is_stmt 0 view .LVU364
 1511 006e 0421     		movs	r1, #4
 1512 0070 2846     		mov	r0, r5
 1513 0072 FFF7FEFF 		bl	calloc
 1514              	.LVL170:
 172:App/WS2812B/ws2812b.cpp ****         _transBlue = (float *)calloc(_ledsCount, sizeof(uint32_t));
 1515              		.loc 1 172 21 discriminator 1 view .LVU365
ARM GAS  C:\Users\DARSTE~1\AppData\Local\Temp\ccKwuhjC.s 			page 36


 1516 0076 A062     		str	r0, [r4, #40]
 173:App/WS2812B/ws2812b.cpp ****         _prevColorData = (uint32_t *)calloc(_ledsCount, sizeof(uint32_t));
 1517              		.loc 1 173 9 is_stmt 1 view .LVU366
 173:App/WS2812B/ws2812b.cpp ****         _prevColorData = (uint32_t *)calloc(_ledsCount, sizeof(uint32_t));
 1518              		.loc 1 173 37 is_stmt 0 view .LVU367
 1519 0078 0421     		movs	r1, #4
 1520 007a 2846     		mov	r0, r5
 1521 007c FFF7FEFF 		bl	calloc
 1522              	.LVL171:
 173:App/WS2812B/ws2812b.cpp ****         _prevColorData = (uint32_t *)calloc(_ledsCount, sizeof(uint32_t));
 1523              		.loc 1 173 20 discriminator 1 view .LVU368
 1524 0080 E062     		str	r0, [r4, #44]
 174:App/WS2812B/ws2812b.cpp ****         for (uint16_t ledIterate = 0; ledIterate < _ledsCount; ledIterate++)
 1525              		.loc 1 174 9 is_stmt 1 view .LVU369
 174:App/WS2812B/ws2812b.cpp ****         for (uint16_t ledIterate = 0; ledIterate < _ledsCount; ledIterate++)
 1526              		.loc 1 174 44 is_stmt 0 view .LVU370
 1527 0082 0421     		movs	r1, #4
 1528 0084 2846     		mov	r0, r5
 1529 0086 FFF7FEFF 		bl	calloc
 1530              	.LVL172:
 174:App/WS2812B/ws2812b.cpp ****         for (uint16_t ledIterate = 0; ledIterate < _ledsCount; ledIterate++)
 1531              		.loc 1 174 24 discriminator 1 view .LVU371
 1532 008a 2062     		str	r0, [r4, #32]
 175:App/WS2812B/ws2812b.cpp ****         {
 1533              		.loc 1 175 9 is_stmt 1 view .LVU372
 1534              	.LVL173:
 1535              	.LBB24:
 175:App/WS2812B/ws2812b.cpp ****         {
 1536              		.loc 1 175 23 is_stmt 0 view .LVU373
 1537 008c 0025     		movs	r5, #0
 175:App/WS2812B/ws2812b.cpp ****         {
 1538              		.loc 1 175 9 view .LVU374
 1539 008e 64E0     		b	.L70
 1540              	.LVL174:
 1541              	.L71:
 177:App/WS2812B/ws2812b.cpp ****             _transGreen[ledIterate] = (float)WS2812B::extractGreen(_targetColorData[ledIterate]) - 
 1542              		.loc 1 177 13 is_stmt 1 view .LVU375
 177:App/WS2812B/ws2812b.cpp ****             _transGreen[ledIterate] = (float)WS2812B::extractGreen(_targetColorData[ledIterate]) - 
 1543              		.loc 1 177 64 is_stmt 0 view .LVU376
 1544 0090 E369     		ldr	r3, [r4, #28]
 177:App/WS2812B/ws2812b.cpp ****             _transGreen[ledIterate] = (float)WS2812B::extractGreen(_targetColorData[ledIterate]) - 
 1545              		.loc 1 177 63 view .LVU377
 1546 0092 53F82510 		ldr	r1, [r3, r5, lsl #2]
 1547 0096 2046     		mov	r0, r4
 1548 0098 FFF7FEFF 		bl	_ZN7WS2812B10extractRedEm
 1549              	.LVL175:
 177:App/WS2812B/ws2812b.cpp ****             _transGreen[ledIterate] = (float)WS2812B::extractGreen(_targetColorData[ledIterate]) - 
 1550              		.loc 1 177 37 discriminator 1 view .LVU378
 1551 009c FFF7FEFF 		bl	__aeabi_ui2f
 1552              	.LVL176:
 1553 00a0 0746     		mov	r7, r0
 177:App/WS2812B/ws2812b.cpp ****             _transGreen[ledIterate] = (float)WS2812B::extractGreen(_targetColorData[ledIterate]) - 
 1554              		.loc 1 177 123 discriminator 1 view .LVU379
 1555 00a2 A369     		ldr	r3, [r4, #24]
 177:App/WS2812B/ws2812b.cpp ****             _transGreen[ledIterate] = (float)WS2812B::extractGreen(_targetColorData[ledIterate]) - 
 1556              		.loc 1 177 122 discriminator 1 view .LVU380
 1557 00a4 53F82510 		ldr	r1, [r3, r5, lsl #2]
ARM GAS  C:\Users\DARSTE~1\AppData\Local\Temp\ccKwuhjC.s 			page 37


 1558 00a8 2046     		mov	r0, r4
 1559 00aa FFF7FEFF 		bl	_ZN7WS2812B10extractRedEm
 1560              	.LVL177:
 177:App/WS2812B/ws2812b.cpp ****             _transGreen[ledIterate] = (float)WS2812B::extractGreen(_targetColorData[ledIterate]) - 
 1561              		.loc 1 177 96 discriminator 2 view .LVU381
 1562 00ae FFF7FEFF 		bl	__aeabi_ui2f
 1563              	.LVL178:
 1564 00b2 0146     		mov	r1, r0
 177:App/WS2812B/ws2812b.cpp ****             _transGreen[ledIterate] = (float)WS2812B::extractGreen(_targetColorData[ledIterate]) - 
 1565              		.loc 1 177 13 discriminator 2 view .LVU382
 1566 00b4 D4F82480 		ldr	r8, [r4, #36]
 177:App/WS2812B/ws2812b.cpp ****             _transGreen[ledIterate] = (float)WS2812B::extractGreen(_targetColorData[ledIterate]) - 
 1567              		.loc 1 177 94 discriminator 2 view .LVU383
 1568 00b8 3846     		mov	r0, r7
 1569 00ba FFF7FEFF 		bl	__aeabi_fsub
 1570              	.LVL179:
 177:App/WS2812B/ws2812b.cpp ****             _transGreen[ledIterate] = (float)WS2812B::extractGreen(_targetColorData[ledIterate]) - 
 1571              		.loc 1 177 35 discriminator 2 view .LVU384
 1572 00be 48F82500 		str	r0, [r8, r5, lsl #2]	@ float
 178:App/WS2812B/ws2812b.cpp ****             _transBlue[ledIterate] = (float)WS2812B::extractBlue(_targetColorData[ledIterate]) - (f
 1573              		.loc 1 178 13 is_stmt 1 view .LVU385
 178:App/WS2812B/ws2812b.cpp ****             _transBlue[ledIterate] = (float)WS2812B::extractBlue(_targetColorData[ledIterate]) - (f
 1574              		.loc 1 178 68 is_stmt 0 view .LVU386
 1575 00c2 E369     		ldr	r3, [r4, #28]
 178:App/WS2812B/ws2812b.cpp ****             _transBlue[ledIterate] = (float)WS2812B::extractBlue(_targetColorData[ledIterate]) - (f
 1576              		.loc 1 178 67 view .LVU387
 1577 00c4 53F82510 		ldr	r1, [r3, r5, lsl #2]
 1578 00c8 2046     		mov	r0, r4
 1579 00ca FFF7FEFF 		bl	_ZN7WS2812B12extractGreenEm
 1580              	.LVL180:
 178:App/WS2812B/ws2812b.cpp ****             _transBlue[ledIterate] = (float)WS2812B::extractBlue(_targetColorData[ledIterate]) - (f
 1581              		.loc 1 178 39 discriminator 1 view .LVU388
 1582 00ce FFF7FEFF 		bl	__aeabi_ui2f
 1583              	.LVL181:
 1584 00d2 0746     		mov	r7, r0
 178:App/WS2812B/ws2812b.cpp ****             _transBlue[ledIterate] = (float)WS2812B::extractBlue(_targetColorData[ledIterate]) - (f
 1585              		.loc 1 178 129 discriminator 1 view .LVU389
 1586 00d4 A369     		ldr	r3, [r4, #24]
 178:App/WS2812B/ws2812b.cpp ****             _transBlue[ledIterate] = (float)WS2812B::extractBlue(_targetColorData[ledIterate]) - (f
 1587              		.loc 1 178 128 discriminator 1 view .LVU390
 1588 00d6 53F82510 		ldr	r1, [r3, r5, lsl #2]
 1589 00da 2046     		mov	r0, r4
 1590 00dc FFF7FEFF 		bl	_ZN7WS2812B12extractGreenEm
 1591              	.LVL182:
 178:App/WS2812B/ws2812b.cpp ****             _transBlue[ledIterate] = (float)WS2812B::extractBlue(_targetColorData[ledIterate]) - (f
 1592              		.loc 1 178 100 discriminator 2 view .LVU391
 1593 00e0 FFF7FEFF 		bl	__aeabi_ui2f
 1594              	.LVL183:
 1595 00e4 0146     		mov	r1, r0
 178:App/WS2812B/ws2812b.cpp ****             _transBlue[ledIterate] = (float)WS2812B::extractBlue(_targetColorData[ledIterate]) - (f
 1596              		.loc 1 178 13 discriminator 2 view .LVU392
 1597 00e6 D4F82880 		ldr	r8, [r4, #40]
 178:App/WS2812B/ws2812b.cpp ****             _transBlue[ledIterate] = (float)WS2812B::extractBlue(_targetColorData[ledIterate]) - (f
 1598              		.loc 1 178 98 discriminator 2 view .LVU393
 1599 00ea 3846     		mov	r0, r7
 1600 00ec FFF7FEFF 		bl	__aeabi_fsub
 1601              	.LVL184:
ARM GAS  C:\Users\DARSTE~1\AppData\Local\Temp\ccKwuhjC.s 			page 38


 178:App/WS2812B/ws2812b.cpp ****             _transBlue[ledIterate] = (float)WS2812B::extractBlue(_targetColorData[ledIterate]) - (f
 1602              		.loc 1 178 37 discriminator 2 view .LVU394
 1603 00f0 48F82500 		str	r0, [r8, r5, lsl #2]	@ float
 179:App/WS2812B/ws2812b.cpp ****             _transRed[ledIterate] = _transRed[ledIterate] / duration;
 1604              		.loc 1 179 13 is_stmt 1 view .LVU395
 179:App/WS2812B/ws2812b.cpp ****             _transRed[ledIterate] = _transRed[ledIterate] / duration;
 1605              		.loc 1 179 66 is_stmt 0 view .LVU396
 1606 00f4 E369     		ldr	r3, [r4, #28]
 179:App/WS2812B/ws2812b.cpp ****             _transRed[ledIterate] = _transRed[ledIterate] / duration;
 1607              		.loc 1 179 65 view .LVU397
 1608 00f6 53F82510 		ldr	r1, [r3, r5, lsl #2]
 1609 00fa 2046     		mov	r0, r4
 1610 00fc FFF7FEFF 		bl	_ZN7WS2812B11extractBlueEm
 1611              	.LVL185:
 179:App/WS2812B/ws2812b.cpp ****             _transRed[ledIterate] = _transRed[ledIterate] / duration;
 1612              		.loc 1 179 38 discriminator 1 view .LVU398
 1613 0100 FFF7FEFF 		bl	__aeabi_ui2f
 1614              	.LVL186:
 1615 0104 0746     		mov	r7, r0
 179:App/WS2812B/ws2812b.cpp ****             _transRed[ledIterate] = _transRed[ledIterate] / duration;
 1616              		.loc 1 179 126 discriminator 1 view .LVU399
 1617 0106 A369     		ldr	r3, [r4, #24]
 179:App/WS2812B/ws2812b.cpp ****             _transRed[ledIterate] = _transRed[ledIterate] / duration;
 1618              		.loc 1 179 125 discriminator 1 view .LVU400
 1619 0108 53F82510 		ldr	r1, [r3, r5, lsl #2]
 1620 010c 2046     		mov	r0, r4
 1621 010e FFF7FEFF 		bl	_ZN7WS2812B11extractBlueEm
 1622              	.LVL187:
 179:App/WS2812B/ws2812b.cpp ****             _transRed[ledIterate] = _transRed[ledIterate] / duration;
 1623              		.loc 1 179 98 discriminator 2 view .LVU401
 1624 0112 FFF7FEFF 		bl	__aeabi_ui2f
 1625              	.LVL188:
 1626 0116 0146     		mov	r1, r0
 179:App/WS2812B/ws2812b.cpp ****             _transRed[ledIterate] = _transRed[ledIterate] / duration;
 1627              		.loc 1 179 13 discriminator 2 view .LVU402
 1628 0118 D4F82C80 		ldr	r8, [r4, #44]
 179:App/WS2812B/ws2812b.cpp ****             _transRed[ledIterate] = _transRed[ledIterate] / duration;
 1629              		.loc 1 179 96 discriminator 2 view .LVU403
 1630 011c 3846     		mov	r0, r7
 1631 011e FFF7FEFF 		bl	__aeabi_fsub
 1632              	.LVL189:
 179:App/WS2812B/ws2812b.cpp ****             _transRed[ledIterate] = _transRed[ledIterate] / duration;
 1633              		.loc 1 179 36 discriminator 2 view .LVU404
 1634 0122 48F82500 		str	r0, [r8, r5, lsl #2]	@ float
 180:App/WS2812B/ws2812b.cpp ****             _transGreen[ledIterate] = _transGreen[ledIterate] / duration;
 1635              		.loc 1 180 13 is_stmt 1 view .LVU405
 180:App/WS2812B/ws2812b.cpp ****             _transGreen[ledIterate] = _transGreen[ledIterate] / duration;
 1636              		.loc 1 180 37 is_stmt 0 view .LVU406
 1637 0126 676A     		ldr	r7, [r4, #36]
 180:App/WS2812B/ws2812b.cpp ****             _transGreen[ledIterate] = _transGreen[ledIterate] / duration;
 1638              		.loc 1 180 59 view .LVU407
 1639 0128 3146     		mov	r1, r6
 1640 012a 57F82500 		ldr	r0, [r7, r5, lsl #2]	@ float
 1641 012e FFF7FEFF 		bl	__aeabi_fdiv
 1642              	.LVL190:
 180:App/WS2812B/ws2812b.cpp ****             _transGreen[ledIterate] = _transGreen[ledIterate] / duration;
 1643              		.loc 1 180 35 view .LVU408
ARM GAS  C:\Users\DARSTE~1\AppData\Local\Temp\ccKwuhjC.s 			page 39


 1644 0132 47F82500 		str	r0, [r7, r5, lsl #2]	@ float
 181:App/WS2812B/ws2812b.cpp ****             _transBlue[ledIterate] = _transBlue[ledIterate] / duration;
 1645              		.loc 1 181 13 is_stmt 1 view .LVU409
 181:App/WS2812B/ws2812b.cpp ****             _transBlue[ledIterate] = _transBlue[ledIterate] / duration;
 1646              		.loc 1 181 39 is_stmt 0 view .LVU410
 1647 0136 A76A     		ldr	r7, [r4, #40]
 181:App/WS2812B/ws2812b.cpp ****             _transBlue[ledIterate] = _transBlue[ledIterate] / duration;
 1648              		.loc 1 181 63 view .LVU411
 1649 0138 3146     		mov	r1, r6
 1650 013a 57F82500 		ldr	r0, [r7, r5, lsl #2]	@ float
 1651 013e FFF7FEFF 		bl	__aeabi_fdiv
 1652              	.LVL191:
 181:App/WS2812B/ws2812b.cpp ****             _transBlue[ledIterate] = _transBlue[ledIterate] / duration;
 1653              		.loc 1 181 37 view .LVU412
 1654 0142 47F82500 		str	r0, [r7, r5, lsl #2]	@ float
 182:App/WS2812B/ws2812b.cpp ****         }
 1655              		.loc 1 182 13 is_stmt 1 view .LVU413
 182:App/WS2812B/ws2812b.cpp ****         }
 1656              		.loc 1 182 38 is_stmt 0 view .LVU414
 1657 0146 E76A     		ldr	r7, [r4, #44]
 182:App/WS2812B/ws2812b.cpp ****         }
 1658              		.loc 1 182 61 view .LVU415
 1659 0148 3146     		mov	r1, r6
 1660 014a 57F82500 		ldr	r0, [r7, r5, lsl #2]	@ float
 1661 014e FFF7FEFF 		bl	__aeabi_fdiv
 1662              	.LVL192:
 182:App/WS2812B/ws2812b.cpp ****         }
 1663              		.loc 1 182 36 view .LVU416
 1664 0152 47F82500 		str	r0, [r7, r5, lsl #2]	@ float
 175:App/WS2812B/ws2812b.cpp ****         {
 1665              		.loc 1 175 9 is_stmt 1 discriminator 3 view .LVU417
 1666 0156 0135     		adds	r5, r5, #1
 1667              	.LVL193:
 175:App/WS2812B/ws2812b.cpp ****         {
 1668              		.loc 1 175 9 is_stmt 0 discriminator 3 view .LVU418
 1669 0158 ADB2     		uxth	r5, r5
 1670              	.LVL194:
 1671              	.L70:
 175:App/WS2812B/ws2812b.cpp ****         {
 1672              		.loc 1 175 50 is_stmt 1 discriminator 1 view .LVU419
 175:App/WS2812B/ws2812b.cpp ****         {
 1673              		.loc 1 175 52 is_stmt 0 discriminator 1 view .LVU420
 1674 015a 2389     		ldrh	r3, [r4, #8]
 175:App/WS2812B/ws2812b.cpp ****         {
 1675              		.loc 1 175 50 discriminator 1 view .LVU421
 1676 015c AB42     		cmp	r3, r5
 1677 015e 97D8     		bhi	.L71
 1678              	.LBE24:
 1679              	.LBB25:
 184:App/WS2812B/ws2812b.cpp ****             _prevColorData[ledIterate] = _colorData[ledIterate];
 1680              		.loc 1 184 23 view .LVU422
 1681 0160 0023     		movs	r3, #0
 1682 0162 07E0     		b	.L72
 1683              	.LVL195:
 1684              	.L73:
 185:App/WS2812B/ws2812b.cpp ****     }
 1685              		.loc 1 185 13 is_stmt 1 view .LVU423
ARM GAS  C:\Users\DARSTE~1\AppData\Local\Temp\ccKwuhjC.s 			page 40


 185:App/WS2812B/ws2812b.cpp ****     }
 1686              		.loc 1 185 42 is_stmt 0 view .LVU424
 1687 0164 A169     		ldr	r1, [r4, #24]
 185:App/WS2812B/ws2812b.cpp ****     }
 1688              		.loc 1 185 13 view .LVU425
 1689 0166 226A     		ldr	r2, [r4, #32]
 185:App/WS2812B/ws2812b.cpp ****     }
 1690              		.loc 1 185 63 view .LVU426
 1691 0168 51F82310 		ldr	r1, [r1, r3, lsl #2]
 185:App/WS2812B/ws2812b.cpp ****     }
 1692              		.loc 1 185 40 view .LVU427
 1693 016c 42F82310 		str	r1, [r2, r3, lsl #2]
 184:App/WS2812B/ws2812b.cpp ****             _prevColorData[ledIterate] = _colorData[ledIterate];
 1694              		.loc 1 184 9 is_stmt 1 discriminator 3 view .LVU428
 1695 0170 0133     		adds	r3, r3, #1
 1696              	.LVL196:
 184:App/WS2812B/ws2812b.cpp ****             _prevColorData[ledIterate] = _colorData[ledIterate];
 1697              		.loc 1 184 9 is_stmt 0 discriminator 3 view .LVU429
 1698 0172 9BB2     		uxth	r3, r3
 1699              	.LVL197:
 1700              	.L72:
 184:App/WS2812B/ws2812b.cpp ****             _prevColorData[ledIterate] = _colorData[ledIterate];
 1701              		.loc 1 184 50 is_stmt 1 discriminator 1 view .LVU430
 184:App/WS2812B/ws2812b.cpp ****             _prevColorData[ledIterate] = _colorData[ledIterate];
 1702              		.loc 1 184 52 is_stmt 0 discriminator 1 view .LVU431
 1703 0174 2289     		ldrh	r2, [r4, #8]
 184:App/WS2812B/ws2812b.cpp ****             _prevColorData[ledIterate] = _colorData[ledIterate];
 1704              		.loc 1 184 50 discriminator 1 view .LVU432
 1705 0176 9A42     		cmp	r2, r3
 1706 0178 F4D8     		bhi	.L73
 1707 017a 58E7     		b	.L68
 1708              	.LVL198:
 1709              	.L75:
 184:App/WS2812B/ws2812b.cpp ****             _prevColorData[ledIterate] = _colorData[ledIterate];
 1710              		.loc 1 184 50 discriminator 1 view .LVU433
 1711              	.LBE25:
 1712              	.LBE26:
 1713              	.LBE27:
 1714              	.LBB28:
 189:App/WS2812B/ws2812b.cpp ****             WS2812B::extractRed(_prevColorData[ledIterate]) + *timeTick * _transRed[ledIterate],
 1715              		.loc 1 189 9 is_stmt 1 view .LVU434
 190:App/WS2812B/ws2812b.cpp ****             WS2812B::extractGreen(_prevColorData[ledIterate]) + *timeTick * _transGreen[ledIterate]
 1716              		.loc 1 190 33 is_stmt 0 view .LVU435
 1717 017c 236A     		ldr	r3, [r4, #32]
 190:App/WS2812B/ws2812b.cpp ****             WS2812B::extractGreen(_prevColorData[ledIterate]) + *timeTick * _transGreen[ledIterate]
 1718              		.loc 1 190 32 view .LVU436
 1719 017e 53F825A0 		ldr	r10, [r3, r5, lsl #2]
 1720 0182 5146     		mov	r1, r10
 1721 0184 2046     		mov	r0, r4
 1722 0186 FFF7FEFF 		bl	_ZN7WS2812B10extractRedEm
 1723              	.LVL199:
 1724 018a 8046     		mov	r8, r0
 190:App/WS2812B/ws2812b.cpp ****             WS2812B::extractGreen(_prevColorData[ledIterate]) + *timeTick * _transGreen[ledIterate]
 1725              		.loc 1 190 63 discriminator 1 view .LVU437
 1726 018c D9F80070 		ldr	r7, [r9]	@ float
 190:App/WS2812B/ws2812b.cpp ****             WS2812B::extractGreen(_prevColorData[ledIterate]) + *timeTick * _transGreen[ledIterate]
 1727              		.loc 1 190 75 discriminator 1 view .LVU438
ARM GAS  C:\Users\DARSTE~1\AppData\Local\Temp\ccKwuhjC.s 			page 41


 1728 0190 636A     		ldr	r3, [r4, #36]
 190:App/WS2812B/ws2812b.cpp ****             WS2812B::extractGreen(_prevColorData[ledIterate]) + *timeTick * _transGreen[ledIterate]
 1729              		.loc 1 190 73 discriminator 1 view .LVU439
 1730 0192 53F82510 		ldr	r1, [r3, r5, lsl #2]	@ float
 1731 0196 3846     		mov	r0, r7
 1732 0198 FFF7FEFF 		bl	__aeabi_fmul
 1733              	.LVL200:
 1734 019c 0646     		mov	r6, r0
 190:App/WS2812B/ws2812b.cpp ****             WS2812B::extractGreen(_prevColorData[ledIterate]) + *timeTick * _transGreen[ledIterate]
 1735              		.loc 1 190 61 discriminator 1 view .LVU440
 1736 019e 4046     		mov	r0, r8
 1737 01a0 FFF7FEFF 		bl	__aeabi_i2f
 1738              	.LVL201:
 1739 01a4 3146     		mov	r1, r6
 1740 01a6 FFF7FEFF 		bl	__aeabi_fadd
 1741              	.LVL202:
 1742 01aa 8046     		mov	r8, r0
 191:App/WS2812B/ws2812b.cpp ****             WS2812B::extractBlue(_prevColorData[ledIterate]) + *timeTick * _transBlue[ledIterate]
 1743              		.loc 1 191 34 view .LVU441
 1744 01ac 5146     		mov	r1, r10
 1745 01ae 2046     		mov	r0, r4
 1746 01b0 FFF7FEFF 		bl	_ZN7WS2812B12extractGreenEm
 1747              	.LVL203:
 1748 01b4 8346     		mov	fp, r0
 191:App/WS2812B/ws2812b.cpp ****             WS2812B::extractBlue(_prevColorData[ledIterate]) + *timeTick * _transBlue[ledIterate]
 1749              		.loc 1 191 77 discriminator 1 view .LVU442
 1750 01b6 A36A     		ldr	r3, [r4, #40]
 191:App/WS2812B/ws2812b.cpp ****             WS2812B::extractBlue(_prevColorData[ledIterate]) + *timeTick * _transBlue[ledIterate]
 1751              		.loc 1 191 75 discriminator 1 view .LVU443
 1752 01b8 53F82510 		ldr	r1, [r3, r5, lsl #2]	@ float
 1753 01bc 3846     		mov	r0, r7
 1754 01be FFF7FEFF 		bl	__aeabi_fmul
 1755              	.LVL204:
 1756 01c2 0646     		mov	r6, r0
 191:App/WS2812B/ws2812b.cpp ****             WS2812B::extractBlue(_prevColorData[ledIterate]) + *timeTick * _transBlue[ledIterate]
 1757              		.loc 1 191 63 discriminator 1 view .LVU444
 1758 01c4 5846     		mov	r0, fp
 1759 01c6 FFF7FEFF 		bl	__aeabi_i2f
 1760              	.LVL205:
 1761 01ca 3146     		mov	r1, r6
 1762 01cc FFF7FEFF 		bl	__aeabi_fadd
 1763              	.LVL206:
 1764 01d0 0646     		mov	r6, r0
 192:App/WS2812B/ws2812b.cpp ****         );
 1765              		.loc 1 192 33 view .LVU445
 1766 01d2 5146     		mov	r1, r10
 1767 01d4 2046     		mov	r0, r4
 1768 01d6 FFF7FEFF 		bl	_ZN7WS2812B11extractBlueEm
 1769              	.LVL207:
 1770 01da 8246     		mov	r10, r0
 192:App/WS2812B/ws2812b.cpp ****         );
 1771              		.loc 1 192 76 discriminator 1 view .LVU446
 1772 01dc E36A     		ldr	r3, [r4, #44]
 192:App/WS2812B/ws2812b.cpp ****         );
 1773              		.loc 1 192 74 discriminator 1 view .LVU447
 1774 01de 53F82510 		ldr	r1, [r3, r5, lsl #2]	@ float
 1775 01e2 3846     		mov	r0, r7
ARM GAS  C:\Users\DARSTE~1\AppData\Local\Temp\ccKwuhjC.s 			page 42


 1776 01e4 FFF7FEFF 		bl	__aeabi_fmul
 1777              	.LVL208:
 1778 01e8 0746     		mov	r7, r0
 192:App/WS2812B/ws2812b.cpp ****         );
 1779              		.loc 1 192 62 discriminator 1 view .LVU448
 1780 01ea 5046     		mov	r0, r10
 1781 01ec FFF7FEFF 		bl	__aeabi_i2f
 1782              	.LVL209:
 1783 01f0 3946     		mov	r1, r7
 1784 01f2 FFF7FEFF 		bl	__aeabi_fadd
 1785              	.LVL210:
 189:App/WS2812B/ws2812b.cpp ****             WS2812B::extractRed(_prevColorData[ledIterate]) + *timeTick * _transRed[ledIterate],
 1786              		.loc 1 189 9 view .LVU449
 1787 01f6 D4F818A0 		ldr	r10, [r4, #24]
 189:App/WS2812B/ws2812b.cpp ****             WS2812B::extractRed(_prevColorData[ledIterate]) + *timeTick * _transRed[ledIterate],
 1788              		.loc 1 189 53 view .LVU450
 1789 01fa FFF7FEFF 		bl	__aeabi_f2uiz
 1790              	.LVL211:
 1791 01fe C7B2     		uxtb	r7, r0
 1792 0200 3046     		mov	r0, r6
 1793 0202 FFF7FEFF 		bl	__aeabi_f2uiz
 1794              	.LVL212:
 1795 0206 C6B2     		uxtb	r6, r0
 1796 0208 4046     		mov	r0, r8
 1797 020a FFF7FEFF 		bl	__aeabi_f2uiz
 1798              	.LVL213:
 1799 020e 3B46     		mov	r3, r7
 1800 0210 3246     		mov	r2, r6
 1801 0212 C1B2     		uxtb	r1, r0
 1802 0214 2046     		mov	r0, r4
 1803 0216 FFF7FEFF 		bl	_ZN7WS2812B10combineRGBEhhh
 1804              	.LVL214:
 189:App/WS2812B/ws2812b.cpp ****             WS2812B::extractRed(_prevColorData[ledIterate]) + *timeTick * _transRed[ledIterate],
 1805              		.loc 1 189 32 discriminator 1 view .LVU451
 1806 021a 4AF82500 		str	r0, [r10, r5, lsl #2]
 188:App/WS2812B/ws2812b.cpp ****         _colorData[ledIterate] = WS2812B::combineRGB(
 1807              		.loc 1 188 5 is_stmt 1 discriminator 3 view .LVU452
 1808 021e 0135     		adds	r5, r5, #1
 1809              	.LVL215:
 188:App/WS2812B/ws2812b.cpp ****         _colorData[ledIterate] = WS2812B::combineRGB(
 1810              		.loc 1 188 5 is_stmt 0 discriminator 3 view .LVU453
 1811 0220 ADB2     		uxth	r5, r5
 1812              	.LVL216:
 1813              	.L74:
 188:App/WS2812B/ws2812b.cpp ****         _colorData[ledIterate] = WS2812B::combineRGB(
 1814              		.loc 1 188 46 is_stmt 1 discriminator 1 view .LVU454
 188:App/WS2812B/ws2812b.cpp ****         _colorData[ledIterate] = WS2812B::combineRGB(
 1815              		.loc 1 188 48 is_stmt 0 discriminator 1 view .LVU455
 1816 0222 2389     		ldrh	r3, [r4, #8]
 188:App/WS2812B/ws2812b.cpp ****         _colorData[ledIterate] = WS2812B::combineRGB(
 1817              		.loc 1 188 46 discriminator 1 view .LVU456
 1818 0224 AB42     		cmp	r3, r5
 1819 0226 A9D8     		bhi	.L75
 1820              	.LBE28:
 195:App/WS2812B/ws2812b.cpp **** 
 1821              		.loc 1 195 5 is_stmt 1 view .LVU457
 195:App/WS2812B/ws2812b.cpp **** 
ARM GAS  C:\Users\DARSTE~1\AppData\Local\Temp\ccKwuhjC.s 			page 43


 1822              		.loc 1 195 26 is_stmt 0 view .LVU458
 1823 0228 2046     		mov	r0, r4
 1824 022a FFF7FEFF 		bl	_ZN7WS2812B12updateBufferEv
 1825              	.LVL217:
 197:App/WS2812B/ws2812b.cpp ****         _PWMgenerator, _channel,
 1826              		.loc 1 197 5 is_stmt 1 view .LVU459
 200:App/WS2812B/ws2812b.cpp ****     );
 1827              		.loc 1 200 9 is_stmt 0 view .LVU460
 1828 022e 2389     		ldrh	r3, [r4, #8]
 200:App/WS2812B/ws2812b.cpp ****     );
 1829              		.loc 1 200 22 view .LVU461
 1830 0230 94F83420 		ldrb	r2, [r4, #52]	@ zero_extendqisi2
 197:App/WS2812B/ws2812b.cpp ****         _PWMgenerator, _channel,
 1831              		.loc 1 197 26 view .LVU462
 1832 0234 02FB03F3 		mul	r3, r2, r3
 1833 0238 9BB2     		uxth	r3, r3
 1834 023a 226B     		ldr	r2, [r4, #48]
 1835 023c E168     		ldr	r1, [r4, #12]
 1836 023e 6068     		ldr	r0, [r4, #4]
 1837 0240 FFF7FEFF 		bl	HAL_TIM_PWM_Start_DMA
 1838              	.LVL218:
 203:App/WS2812B/ws2812b.cpp ****     while (UPDATE_STATE == WS2812B_UPDATE_ONGOING);
 1839              		.loc 1 203 5 is_stmt 1 view .LVU463
 203:App/WS2812B/ws2812b.cpp ****     while (UPDATE_STATE == WS2812B_UPDATE_ONGOING);
 1840              		.loc 1 203 18 is_stmt 0 view .LVU464
 1841 0244 0023     		movs	r3, #0
 1842 0246 2370     		strb	r3, [r4]
 204:App/WS2812B/ws2812b.cpp **** 
 1843              		.loc 1 204 5 is_stmt 1 view .LVU465
 1844              	.L76:
 204:App/WS2812B/ws2812b.cpp **** 
 1845              		.loc 1 204 25 discriminator 1 view .LVU466
 204:App/WS2812B/ws2812b.cpp **** 
 1846              		.loc 1 204 12 is_stmt 0 discriminator 1 view .LVU467
 1847 0248 2378     		ldrb	r3, [r4]	@ zero_extendqisi2
 204:App/WS2812B/ws2812b.cpp **** 
 1848              		.loc 1 204 25 discriminator 1 view .LVU468
 1849 024a 002B     		cmp	r3, #0
 1850 024c FCD0     		beq	.L76
 206:App/WS2812B/ws2812b.cpp **** }
 1851              		.loc 1 206 28 view .LVU469
 1852 024e 0020     		movs	r0, #0
 1853              	.LVL219:
 1854              	.L67:
 207:App/WS2812B/ws2812b.cpp **** 
 1855              		.loc 1 207 1 view .LVU470
 1856 0250 BDE8F88F 		pop	{r3, r4, r5, r6, r7, r8, r9, r10, fp, pc}
 1857              	.LVL220:
 1858              	.L77:
 166:App/WS2812B/ws2812b.cpp **** 
 1859              		.loc 1 166 16 view .LVU471
 1860 0254 0120     		movs	r0, #1
 1861 0256 FBE7     		b	.L67
 1862              	.L85:
 1863              		.align	2
 1864              	.L84:
 1865 0258 00007A44 		.word	1148846080
ARM GAS  C:\Users\DARSTE~1\AppData\Local\Temp\ccKwuhjC.s 			page 44


 1866              		.cfi_endproc
 1867              	.LFE83:
 1868              		.fnend
 1870              		.section	.text._ZN7WS2812B11clearBufferEv,"ax",%progbits
 1871              		.align	1
 1872              		.global	_ZN7WS2812B11clearBufferEv
 1873              		.syntax unified
 1874              		.thumb
 1875              		.thumb_func
 1877              	_ZN7WS2812B11clearBufferEv:
 1878              		.fnstart
 1879              	.LVL221:
 1880              	.LFB92:
 251:App/WS2812B/ws2812b.cpp **** 
 252:App/WS2812B/ws2812b.cpp **** void WS2812B::clearBuffer()
 253:App/WS2812B/ws2812b.cpp **** {
 1881              		.loc 1 253 1 is_stmt 1 view -0
 1882              		.cfi_startproc
 1883              		@ args = 0, pretend = 0, frame = 0
 1884              		@ frame_needed = 0, uses_anonymous_args = 0
 1885              		@ link register save eliminated.
 254:App/WS2812B/ws2812b.cpp ****     for (uint32_t bufferIndex = 0;
 1886              		.loc 1 254 5 view .LVU473
 1887              	.LBB29:
 1888              		.loc 1 254 19 is_stmt 0 view .LVU474
 1889 0000 0022     		movs	r2, #0
 1890              		.loc 1 254 5 view .LVU475
 1891 0002 04E0     		b	.L87
 1892              	.LVL222:
 1893              	.L88:
 255:App/WS2812B/ws2812b.cpp ****         bufferIndex < _ledsCount * 24 + WS2812B_RESET_CODE_PADDING;
 256:App/WS2812B/ws2812b.cpp ****         bufferIndex++)
 257:App/WS2812B/ws2812b.cpp ****     { _buffer[bufferIndex] = 0; }
 1894              		.loc 1 257 7 is_stmt 1 view .LVU476
 1895 0004 036B     		ldr	r3, [r0, #48]
 1896              		.loc 1 257 28 is_stmt 0 view .LVU477
 1897 0006 0021     		movs	r1, #0
 1898 0008 43F82210 		str	r1, [r3, r2, lsl #2]
 254:App/WS2812B/ws2812b.cpp ****     for (uint32_t bufferIndex = 0;
 1899              		.loc 1 254 5 is_stmt 1 view .LVU478
 1900 000c 0132     		adds	r2, r2, #1
 1901              	.LVL223:
 1902              	.L87:
 255:App/WS2812B/ws2812b.cpp ****         bufferIndex < _ledsCount * 24 + WS2812B_RESET_CODE_PADDING;
 1903              		.loc 1 255 21 view .LVU479
 255:App/WS2812B/ws2812b.cpp ****         bufferIndex < _ledsCount * 24 + WS2812B_RESET_CODE_PADDING;
 1904              		.loc 1 255 23 is_stmt 0 view .LVU480
 1905 000e 0389     		ldrh	r3, [r0, #8]
 255:App/WS2812B/ws2812b.cpp ****         bufferIndex < _ledsCount * 24 + WS2812B_RESET_CODE_PADDING;
 1906              		.loc 1 255 34 view .LVU481
 1907 0010 03EB4303 		add	r3, r3, r3, lsl #1
 1908 0014 DB00     		lsls	r3, r3, #3
 255:App/WS2812B/ws2812b.cpp ****         bufferIndex < _ledsCount * 24 + WS2812B_RESET_CODE_PADDING;
 1909              		.loc 1 255 39 view .LVU482
 1910 0016 2833     		adds	r3, r3, #40
 255:App/WS2812B/ws2812b.cpp ****         bufferIndex < _ledsCount * 24 + WS2812B_RESET_CODE_PADDING;
 1911              		.loc 1 255 21 view .LVU483
ARM GAS  C:\Users\DARSTE~1\AppData\Local\Temp\ccKwuhjC.s 			page 45


 1912 0018 9342     		cmp	r3, r2
 1913 001a F3D8     		bhi	.L88
 1914              	.LBE29:
 258:App/WS2812B/ws2812b.cpp **** }...
 1915              		.loc 1 258 1 view .LVU484
 1916 001c 7047     		bx	lr
 1917              		.cfi_endproc
 1918              	.LFE92:
 1919              		.cantunwind
 1920              		.fnend
 1922              		.text
 1923              	.Letext0:
 1924              		.file 2 "C:/msys64/mingw64/arm-none-eabi/include/machine/_default_types.h"
 1925              		.file 3 "C:/msys64/mingw64/arm-none-eabi/include/sys/_stdint.h"
 1926              		.file 4 "Drivers/CMSIS/Device/ST/STM32F1xx/Include/stm32f103xb.h"
 1927              		.file 5 "C:/msys64/mingw64/lib/gcc/arm-none-eabi/13.3.0/include/stddef.h"
 1928              		.file 6 "Drivers/STM32F1xx_HAL_Driver/Inc/stm32f1xx_hal_def.h"
 1929              		.file 7 "Drivers/STM32F1xx_HAL_Driver/Inc/stm32f1xx_hal_dma.h"
 1930              		.file 8 "Drivers/STM32F1xx_HAL_Driver/Inc/stm32f1xx_hal_tim.h"
 1931              		.file 9 "App/WS2812B/ws2812b.h"
 1932              		.file 10 "C:/msys64/mingw64/arm-none-eabi/include/c++/13.3.0/cstdlib"
 1933              		.file 11 "C:/msys64/mingw64/arm-none-eabi/include/c++/13.3.0/bits/std_abs.h"
 1934              		.file 12 "C:/msys64/mingw64/arm-none-eabi/include/c++/13.3.0/arm-none-eabi/thumb/v7-m/nofp/bits/c+
 1935              		.file 13 "C:/msys64/mingw64/arm-none-eabi/include/stdlib.h"
 1936              		.file 14 "C:/msys64/mingw64/arm-none-eabi/include/c++/13.3.0/stdlib.h"
 1937              		.file 15 "C:/msys64/mingw64/arm-none-eabi/include/string.h"
ARM GAS  C:\Users\DARSTE~1\AppData\Local\Temp\ccKwuhjC.s 			page 46


DEFINED SYMBOLS
                            *ABS*:00000000 ws2812b.cpp
C:\Users\DARSTE~1\AppData\Local\Temp\ccKwuhjC.s:19     .text._ZN7WS2812BC2EP17TIM_HandleTypeDefmt:00000000 $t
C:\Users\DARSTE~1\AppData\Local\Temp\ccKwuhjC.s:25     .text._ZN7WS2812BC2EP17TIM_HandleTypeDefmt:00000000 _ZN7WS2812BC2EP17TIM_HandleTypeDefmt
.ARM.exidx.text._ZN7WS2812BC2EP17TIM_HandleTypeDefmt:00000000 $d
C:\Users\DARSTE~1\AppData\Local\Temp\ccKwuhjC.s:25     .text._ZN7WS2812BC2EP17TIM_HandleTypeDefmt:00000000 _ZN7WS2812BC1EP17TIM_HandleTypeDefmt
C:\Users\DARSTE~1\AppData\Local\Temp\ccKwuhjC.s:52     .text._ZN7WS2812B4initE14WS2812B_STATUS:00000000 $t
C:\Users\DARSTE~1\AppData\Local\Temp\ccKwuhjC.s:58     .text._ZN7WS2812B4initE14WS2812B_STATUS:00000000 _ZN7WS2812B4initE14WS2812B_STATUS
C:\Users\DARSTE~1\AppData\Local\Temp\ccKwuhjC.s:152    .text._ZN7WS2812B4initE14WS2812B_STATUS:0000005c $d
.ARM.exidx.text._ZN7WS2812B4initE14WS2812B_STATUS:00000000 $d
C:\Users\DARSTE~1\AppData\Local\Temp\ccKwuhjC.s:159    .text._ZN7WS2812B10solidColorEmtt:00000000 $t
C:\Users\DARSTE~1\AppData\Local\Temp\ccKwuhjC.s:165    .text._ZN7WS2812B10solidColorEmtt:00000000 _ZN7WS2812B10solidColorEmtt
.ARM.exidx.text._ZN7WS2812B10solidColorEmtt:00000000 $d
C:\Users\DARSTE~1\AppData\Local\Temp\ccKwuhjC.s:204    .text._ZN7WS2812B6rotateE14WS2812B_STATUS:00000000 $t
C:\Users\DARSTE~1\AppData\Local\Temp\ccKwuhjC.s:210    .text._ZN7WS2812B6rotateE14WS2812B_STATUS:00000000 _ZN7WS2812B6rotateE14WS2812B_STATUS
.ARM.exidx.text._ZN7WS2812B6rotateE14WS2812B_STATUS:00000000 $d
C:\Users\DARSTE~1\AppData\Local\Temp\ccKwuhjC.s:342    .text._ZN7WS2812B18startCallbackClockEv:00000000 $t
C:\Users\DARSTE~1\AppData\Local\Temp\ccKwuhjC.s:348    .text._ZN7WS2812B18startCallbackClockEv:00000000 _ZN7WS2812B18startCallbackClockEv
.ARM.extab.text._ZN7WS2812B18startCallbackClockEv:00000000 $d
.ARM.exidx.text._ZN7WS2812B18startCallbackClockEv:00000000 $d
C:\Users\DARSTE~1\AppData\Local\Temp\ccKwuhjC.s:377    .text._ZN7WS2812B17stopCallbackClockEv:00000000 $t
C:\Users\DARSTE~1\AppData\Local\Temp\ccKwuhjC.s:383    .text._ZN7WS2812B17stopCallbackClockEv:00000000 _ZN7WS2812B17stopCallbackClockEv
.ARM.extab.text._ZN7WS2812B17stopCallbackClockEv:00000000 $d
.ARM.exidx.text._ZN7WS2812B17stopCallbackClockEv:00000000 $d
C:\Users\DARSTE~1\AppData\Local\Temp\ccKwuhjC.s:412    .text._ZN7WS2812B10extractRedEm:00000000 $t
C:\Users\DARSTE~1\AppData\Local\Temp\ccKwuhjC.s:418    .text._ZN7WS2812B10extractRedEm:00000000 _ZN7WS2812B10extractRedEm
.ARM.exidx.text._ZN7WS2812B10extractRedEm:00000000 $d
C:\Users\DARSTE~1\AppData\Local\Temp\ccKwuhjC.s:439    .text._ZN7WS2812B12extractGreenEm:00000000 $t
C:\Users\DARSTE~1\AppData\Local\Temp\ccKwuhjC.s:445    .text._ZN7WS2812B12extractGreenEm:00000000 _ZN7WS2812B12extractGreenEm
.ARM.exidx.text._ZN7WS2812B12extractGreenEm:00000000 $d
C:\Users\DARSTE~1\AppData\Local\Temp\ccKwuhjC.s:466    .text._ZN7WS2812B11extractBlueEm:00000000 $t
C:\Users\DARSTE~1\AppData\Local\Temp\ccKwuhjC.s:472    .text._ZN7WS2812B11extractBlueEm:00000000 _ZN7WS2812B11extractBlueEm
.ARM.exidx.text._ZN7WS2812B11extractBlueEm:00000000 $d
C:\Users\DARSTE~1\AppData\Local\Temp\ccKwuhjC.s:493    .text._ZN7WS2812B10combineRGBEhhh:00000000 $t
C:\Users\DARSTE~1\AppData\Local\Temp\ccKwuhjC.s:499    .text._ZN7WS2812B10combineRGBEhhh:00000000 _ZN7WS2812B10combineRGBEhhh
.ARM.exidx.text._ZN7WS2812B10combineRGBEhhh:00000000 $d
C:\Users\DARSTE~1\AppData\Local\Temp\ccKwuhjC.s:534    .text._ZN7WS2812B15gradient2ColorsEmtmt:00000000 $t
C:\Users\DARSTE~1\AppData\Local\Temp\ccKwuhjC.s:540    .text._ZN7WS2812B15gradient2ColorsEmtmt:00000000 _ZN7WS2812B15gradient2ColorsEmtmt
.ARM.exidx.text._ZN7WS2812B15gradient2ColorsEmtmt:00000000 $d
C:\Users\DARSTE~1\AppData\Local\Temp\ccKwuhjC.s:847    .text._ZN7WS2812B5toGRBEm:00000000 $t
C:\Users\DARSTE~1\AppData\Local\Temp\ccKwuhjC.s:853    .text._ZN7WS2812B5toGRBEm:00000000 _ZN7WS2812B5toGRBEm
.ARM.exidx.text._ZN7WS2812B5toGRBEm:00000000 $d
C:\Users\DARSTE~1\AppData\Local\Temp\ccKwuhjC.s:902    .text._ZN7WS2812B12updateBufferEv:00000000 $t
C:\Users\DARSTE~1\AppData\Local\Temp\ccKwuhjC.s:908    .text._ZN7WS2812B12updateBufferEv:00000000 _ZN7WS2812B12updateBufferEv
.ARM.exidx.text._ZN7WS2812B12updateBufferEv:00000000 $d
C:\Users\DARSTE~1\AppData\Local\Temp\ccKwuhjC.s:1031   .text._ZN7WS2812B6renderEv:00000000 $t
C:\Users\DARSTE~1\AppData\Local\Temp\ccKwuhjC.s:1037   .text._ZN7WS2812B6renderEv:00000000 _ZN7WS2812B6renderEv
.ARM.exidx.text._ZN7WS2812B6renderEv:00000000 $d
C:\Users\DARSTE~1\AppData\Local\Temp\ccKwuhjC.s:1102   .text._ZN7WS2812B10transitionEv:00000000 $t
C:\Users\DARSTE~1\AppData\Local\Temp\ccKwuhjC.s:1108   .text._ZN7WS2812B10transitionEv:00000000 _ZN7WS2812B10transitionEv
.ARM.exidx.text._ZN7WS2812B10transitionEv:00000000 $d
C:\Users\DARSTE~1\AppData\Local\Temp\ccKwuhjC.s:1389   .text._ZN7WS2812B10transitionEPff:00000000 $t
C:\Users\DARSTE~1\AppData\Local\Temp\ccKwuhjC.s:1395   .text._ZN7WS2812B10transitionEPff:00000000 _ZN7WS2812B10transitionEPff
C:\Users\DARSTE~1\AppData\Local\Temp\ccKwuhjC.s:1865   .text._ZN7WS2812B10transitionEPff:00000258 $d
.ARM.exidx.text._ZN7WS2812B10transitionEPff:00000000 $d
C:\Users\DARSTE~1\AppData\Local\Temp\ccKwuhjC.s:1871   .text._ZN7WS2812B11clearBufferEv:00000000 $t
C:\Users\DARSTE~1\AppData\Local\Temp\ccKwuhjC.s:1877   .text._ZN7WS2812B11clearBufferEv:00000000 _ZN7WS2812B11clearBufferEv
ARM GAS  C:\Users\DARSTE~1\AppData\Local\Temp\ccKwuhjC.s 			page 47


.ARM.exidx.text._ZN7WS2812B11clearBufferEv:00000000 $d

UNDEFINED SYMBOLS
calloc
HAL_TIM_Base_Start_IT
__aeabi_unwind_cpp_pr1
HAL_TIM_Base_Stop_IT
__aeabi_ui2f
__aeabi_fsub
__aeabi_i2f
__aeabi_fdiv
__aeabi_fmul
__aeabi_f2uiz
__aeabi_fadd
memcpy
HAL_TIM_PWM_Start_DMA
__aeabi_unwind_cpp_pr0
__aeabi_fcmpgt
__aeabi_fcmple
__aeabi_fcmpeq
free
