ARM GAS  C:\Users\DARSTE~1\AppData\Local\Temp\ccBVkiXg.s 			page 1


   1              		.cpu cortex-m3
   2              		.arch armv7-m
   3              		.fpu softvfp
   4              		.eabi_attribute 20, 1
   5              		.eabi_attribute 21, 1
   6              		.eabi_attribute 23, 3
   7              		.eabi_attribute 24, 1
   8              		.eabi_attribute 25, 1
   9              		.eabi_attribute 26, 1
  10              		.eabi_attribute 30, 1
  11              		.eabi_attribute 34, 1
  12              		.eabi_attribute 18, 4
  13              		.file	"ws2812b.cpp"
  14              		.text
  15              	.Ltext0:
  16              		.cfi_sections	.debug_frame
  17              		.file 1 "App/WS2812B/ws2812b.cpp"
  18              		.section	.text._ZN7WS2812BC2EP17TIM_HandleTypeDefmt,"ax",%progbits
  19              		.align	1
  20              		.global	_ZN7WS2812BC2EP17TIM_HandleTypeDefmt
  21              		.syntax unified
  22              		.thumb
  23              		.thumb_func
  25              	_ZN7WS2812BC2EP17TIM_HandleTypeDefmt:
  26              		.fnstart
  27              	.LVL0:
  28              	.LFB75:
   1:App/WS2812B/ws2812b.cpp **** #include "ws2812b.h"
   2:App/WS2812B/ws2812b.cpp **** #include <stdlib.h>
   3:App/WS2812B/ws2812b.cpp **** #include <string.h>
   4:App/WS2812B/ws2812b.cpp **** 
   5:App/WS2812B/ws2812b.cpp **** /*
   6:App/WS2812B/ws2812b.cpp **** =====================================================================
   7:App/WS2812B/ws2812b.cpp ****     PRIVATE FUNCTIONS
   8:App/WS2812B/ws2812b.cpp **** =====================================================================
   9:App/WS2812B/ws2812b.cpp **** */
  10:App/WS2812B/ws2812b.cpp **** 
  11:App/WS2812B/ws2812b.cpp **** 
  12:App/WS2812B/ws2812b.cpp **** /*
  13:App/WS2812B/ws2812b.cpp **** =====================================================================
  14:App/WS2812B/ws2812b.cpp ****     CONSTRUCTORS
  15:App/WS2812B/ws2812b.cpp **** =====================================================================
  16:App/WS2812B/ws2812b.cpp **** */
  17:App/WS2812B/ws2812b.cpp **** 
  18:App/WS2812B/ws2812b.cpp **** WS2812B::WS2812B(TIM_HandleTypeDef *PWMgenerator, uint32_t channel, uint16_t numLed)
  29              		.loc 1 18 1 view -0
  30              		.cfi_startproc
  31              		@ args = 0, pretend = 0, frame = 0
  32              		@ frame_needed = 0, uses_anonymous_args = 0
  33              		@ link register save eliminated.
  34              	.LBB2:
  19:App/WS2812B/ws2812b.cpp ****     : _PWMgenerator(PWMgenerator), _channel(channel), _ledsCount(numLed)
  35              		.loc 1 19 7 is_stmt 0 view .LVU1
  36 0000 4160     		str	r1, [r0, #4]
  37              		.loc 1 19 55 view .LVU2
  38 0002 0381     		strh	r3, [r0, #8]	@ movhi
  39              		.loc 1 19 36 view .LVU3
ARM GAS  C:\Users\DARSTE~1\AppData\Local\Temp\ccBVkiXg.s 			page 2


  40 0004 C260     		str	r2, [r0, #12]
  41              	.LBE2:
  20:App/WS2812B/ws2812b.cpp **** {
  21:App/WS2812B/ws2812b.cpp **** }
  42              		.loc 1 21 1 view .LVU4
  43 0006 7047     		bx	lr
  44              		.cfi_endproc
  45              	.LFE75:
  46              		.cantunwind
  47              		.fnend
  49              		.global	_ZN7WS2812BC1EP17TIM_HandleTypeDefmt
  50              		.thumb_set _ZN7WS2812BC1EP17TIM_HandleTypeDefmt,_ZN7WS2812BC2EP17TIM_HandleTypeDefmt
  51              		.section	.text._ZN7WS2812B4initEh,"ax",%progbits
  52              		.align	1
  53              		.global	_ZN7WS2812B4initEh
  54              		.syntax unified
  55              		.thumb
  56              		.thumb_func
  58              	_ZN7WS2812B4initEh:
  59              		.fnstart
  60              	.LVL1:
  61              	.LFB77:
  22:App/WS2812B/ws2812b.cpp **** 
  23:App/WS2812B/ws2812b.cpp **** 
  24:App/WS2812B/ws2812b.cpp **** /*
  25:App/WS2812B/ws2812b.cpp **** =====================================================================
  26:App/WS2812B/ws2812b.cpp ****     METHODS
  27:App/WS2812B/ws2812b.cpp **** =====================================================================
  28:App/WS2812B/ws2812b.cpp **** */
  29:App/WS2812B/ws2812b.cpp **** 
  30:App/WS2812B/ws2812b.cpp **** void WS2812B::init(uint8_t DMAincrement)
  31:App/WS2812B/ws2812b.cpp **** {
  62              		.loc 1 31 1 is_stmt 1 view -0
  63              		.cfi_startproc
  64              		@ args = 0, pretend = 0, frame = 0
  65              		@ frame_needed = 0, uses_anonymous_args = 0
  66              		.loc 1 31 1 is_stmt 0 view .LVU6
  67 0000 70B5     		push	{r4, r5, r6, lr}
  68              	.LCFI0:
  69              		.cfi_def_cfa_offset 16
  70              		.cfi_offset 4, -16
  71              		.cfi_offset 5, -12
  72              		.cfi_offset 6, -8
  73              		.cfi_offset 14, -4
  74 0002 0446     		mov	r4, r0
  75 0004 0D46     		mov	r5, r1
  32:App/WS2812B/ws2812b.cpp ****     _colorData = (uint32_t *)calloc(_ledsCount, sizeof(uint32_t));
  76              		.loc 1 32 5 is_stmt 1 view .LVU7
  77              		.loc 1 32 37 is_stmt 0 view .LVU8
  78 0006 0689     		ldrh	r6, [r0, #8]
  79              		.loc 1 32 36 view .LVU9
  80 0008 0421     		movs	r1, #4
  81              	.LVL2:
  82              		.loc 1 32 36 view .LVU10
  83 000a 3046     		mov	r0, r6
  84              	.LVL3:
  85              		.loc 1 32 36 view .LVU11
ARM GAS  C:\Users\DARSTE~1\AppData\Local\Temp\ccBVkiXg.s 			page 3


  86 000c FFF7FEFF 		bl	calloc
  87              	.LVL4:
  88              		.loc 1 32 16 view .LVU12
  89 0010 A061     		str	r0, [r4, #24]
  33:App/WS2812B/ws2812b.cpp ****     _targetColorData = (uint32_t *)calloc(_ledsCount, sizeof(uint32_t));
  90              		.loc 1 33 5 is_stmt 1 view .LVU13
  91              		.loc 1 33 42 is_stmt 0 view .LVU14
  92 0012 0421     		movs	r1, #4
  93 0014 3046     		mov	r0, r6
  94 0016 FFF7FEFF 		bl	calloc
  95              	.LVL5:
  96              		.loc 1 33 22 view .LVU15
  97 001a E061     		str	r0, [r4, #28]
  34:App/WS2812B/ws2812b.cpp ****     _buffer = (uint32_t *)calloc(
  98              		.loc 1 34 5 is_stmt 1 view .LVU16
  35:App/WS2812B/ws2812b.cpp ****         _ledsCount * 24 + WS2812B_RESET_CODE_PADDING, sizeof(uint32_t)
  99              		.loc 1 35 20 is_stmt 0 view .LVU17
 100 001c 06EB4606 		add	r6, r6, r6, lsl #1
 101 0020 F000     		lsls	r0, r6, #3
  34:App/WS2812B/ws2812b.cpp ****     _buffer = (uint32_t *)calloc(
 102              		.loc 1 34 33 view .LVU18
 103 0022 0421     		movs	r1, #4
 104 0024 2830     		adds	r0, r0, #40
 105 0026 FFF7FEFF 		bl	calloc
 106              	.LVL6:
  34:App/WS2812B/ws2812b.cpp ****     _buffer = (uint32_t *)calloc(
 107              		.loc 1 34 13 view .LVU19
 108 002a 2063     		str	r0, [r4, #48]
  36:App/WS2812B/ws2812b.cpp ****     );
  37:App/WS2812B/ws2812b.cpp ****     _BIT_1_HIGH = 2 * _PWMgenerator->Instance->ARR / 3 + 1;
 109              		.loc 1 37 5 is_stmt 1 view .LVU20
 110              		.loc 1 37 23 is_stmt 0 view .LVU21
 111 002c 6168     		ldr	r1, [r4, #4]
 112              		.loc 1 37 38 view .LVU22
 113 002e 0B68     		ldr	r3, [r1]
 114              		.loc 1 37 48 view .LVU23
 115 0030 DB6A     		ldr	r3, [r3, #44]
 116              		.loc 1 37 21 view .LVU24
 117 0032 5B00     		lsls	r3, r3, #1
 118              		.loc 1 37 52 view .LVU25
 119 0034 094A     		ldr	r2, .L4
 120 0036 A2FB0303 		umull	r0, r3, r2, r3
 121 003a 5B08     		lsrs	r3, r3, #1
 122              		.loc 1 37 56 view .LVU26
 123 003c 0133     		adds	r3, r3, #1
 124              		.loc 1 37 17 view .LVU27
 125 003e 2361     		str	r3, [r4, #16]
  38:App/WS2812B/ws2812b.cpp ****     _BIT_0_HIGH = _PWMgenerator->Instance->ARR / 3 + 1;
 126              		.loc 1 38 5 is_stmt 1 view .LVU28
 127              		.loc 1 38 34 is_stmt 0 view .LVU29
 128 0040 0B68     		ldr	r3, [r1]
 129              		.loc 1 38 44 view .LVU30
 130 0042 DB6A     		ldr	r3, [r3, #44]
 131              		.loc 1 38 48 view .LVU31
 132 0044 A2FB0323 		umull	r2, r3, r2, r3
 133 0048 5B08     		lsrs	r3, r3, #1
 134              		.loc 1 38 52 view .LVU32
ARM GAS  C:\Users\DARSTE~1\AppData\Local\Temp\ccBVkiXg.s 			page 4


 135 004a 0133     		adds	r3, r3, #1
 136              		.loc 1 38 17 view .LVU33
 137 004c 6361     		str	r3, [r4, #20]
  39:App/WS2812B/ws2812b.cpp ****     _bufferDataMultiplier = 24 * DMAincrement;
 138              		.loc 1 39 5 is_stmt 1 view .LVU34
 139              		.loc 1 39 27 is_stmt 0 view .LVU35
 140 004e 05EB4505 		add	r5, r5, r5, lsl #1
 141 0052 ED00     		lsls	r5, r5, #3
 142 0054 84F83450 		strb	r5, [r4, #52]
  40:App/WS2812B/ws2812b.cpp **** }
 143              		.loc 1 40 1 view .LVU36
 144 0058 70BD     		pop	{r4, r5, r6, pc}
 145              	.LVL7:
 146              	.L5:
 147              		.loc 1 40 1 view .LVU37
 148 005a 00BF     		.align	2
 149              	.L4:
 150 005c ABAAAAAA 		.word	-1431655765
 151              		.cfi_endproc
 152              	.LFE77:
 153              		.cantunwind
 154              		.fnend
 156              		.section	.text._ZN7WS2812B10solidColorEmtt,"ax",%progbits
 157              		.align	1
 158              		.global	_ZN7WS2812B10solidColorEmtt
 159              		.syntax unified
 160              		.thumb
 161              		.thumb_func
 163              	_ZN7WS2812B10solidColorEmtt:
 164              		.fnstart
 165              	.LVL8:
 166              	.LFB78:
  41:App/WS2812B/ws2812b.cpp **** 
  42:App/WS2812B/ws2812b.cpp **** void WS2812B::solidColor(uint32_t color, uint16_t start, uint16_t end)
  43:App/WS2812B/ws2812b.cpp **** {
 167              		.loc 1 43 1 is_stmt 1 view -0
 168              		.cfi_startproc
 169              		@ args = 0, pretend = 0, frame = 0
 170              		@ frame_needed = 0, uses_anonymous_args = 0
 171              		@ link register save eliminated.
  44:App/WS2812B/ws2812b.cpp ****     // color = WS2812B::toGRB(color);
  45:App/WS2812B/ws2812b.cpp ****     for (uint16_t ledIndex = start; ledIndex <= end; ledIndex++)
 172              		.loc 1 45 5 view .LVU39
 173              	.LBB3:
 174              		.loc 1 45 5 is_stmt 0 view .LVU40
 175 0000 05E0     		b	.L7
 176              	.LVL9:
 177              	.L8:
  46:App/WS2812B/ws2812b.cpp ****         _targetColorData[ledIndex] = color;
 178              		.loc 1 46 9 is_stmt 1 discriminator 3 view .LVU41
 179              		.loc 1 46 36 is_stmt 0 discriminator 3 view .LVU42
 180 0002 D0F81CC0 		ldr	ip, [r0, #28]
 181 0006 4CF82210 		str	r1, [ip, r2, lsl #2]
  45:App/WS2812B/ws2812b.cpp ****         _targetColorData[ledIndex] = color;
 182              		.loc 1 45 5 is_stmt 1 discriminator 3 view .LVU43
 183 000a 0132     		adds	r2, r2, #1
 184              	.LVL10:
ARM GAS  C:\Users\DARSTE~1\AppData\Local\Temp\ccBVkiXg.s 			page 5


  45:App/WS2812B/ws2812b.cpp ****         _targetColorData[ledIndex] = color;
 185              		.loc 1 45 5 is_stmt 0 discriminator 3 view .LVU44
 186 000c 92B2     		uxth	r2, r2
 187              	.LVL11:
 188              	.L7:
  45:App/WS2812B/ws2812b.cpp ****         _targetColorData[ledIndex] = color;
 189              		.loc 1 45 46 is_stmt 1 discriminator 1 view .LVU45
 190 000e 9A42     		cmp	r2, r3
 191 0010 F7D9     		bls	.L8
  45:App/WS2812B/ws2812b.cpp ****         _targetColorData[ledIndex] = color;
 192              		.loc 1 45 46 is_stmt 0 discriminator 1 view .LVU46
 193              	.LBE3:
  47:App/WS2812B/ws2812b.cpp **** }
 194              		.loc 1 47 1 view .LVU47
 195 0012 7047     		bx	lr
 196              		.cfi_endproc
 197              	.LFE78:
 198              		.cantunwind
 199              		.fnend
 201              		.section	.text._ZN7WS2812B10transitionEv,"ax",%progbits
 202              		.align	1
 203              		.global	_ZN7WS2812B10transitionEv
 204              		.syntax unified
 205              		.thumb
 206              		.thumb_func
 208              	_ZN7WS2812B10transitionEv:
 209              		.fnstart
 210              	.LFB81:
  48:App/WS2812B/ws2812b.cpp **** 
  49:App/WS2812B/ws2812b.cpp **** void WS2812B::gradient2Colors(uint32_t startColor, uint16_t start, uint32_t endColor, uint16_t end)
  50:App/WS2812B/ws2812b.cpp **** {
  51:App/WS2812B/ws2812b.cpp ****     float stepRed = (float)WS2812B::extractRed(startColor) - (float)WS2812B::extractRed(endColor);
  52:App/WS2812B/ws2812b.cpp ****     float stepGreen = (float)WS2812B::extractGreen(startColor) - (float)WS2812B::extractGreen(endCo
  53:App/WS2812B/ws2812b.cpp ****     float stepBlue = (float)WS2812B::extractBlue(startColor) - (float)WS2812B::extractBlue(endColor
  54:App/WS2812B/ws2812b.cpp ****     stepRed = stepRed / (float)(end - start);
  55:App/WS2812B/ws2812b.cpp ****     stepGreen = stepGreen / (float)(end - start);
  56:App/WS2812B/ws2812b.cpp ****     stepBlue = stepBlue / (float)(end - start);
  57:App/WS2812B/ws2812b.cpp **** 
  58:App/WS2812B/ws2812b.cpp ****     uint16_t colorIterate = 0;
  59:App/WS2812B/ws2812b.cpp ****     while (start <= end)
  60:App/WS2812B/ws2812b.cpp ****     {
  61:App/WS2812B/ws2812b.cpp ****         _targetColorData[start] = WS2812B::combineRGB(
  62:App/WS2812B/ws2812b.cpp ****             WS2812B::extractRed(startColor) - colorIterate * stepRed,
  63:App/WS2812B/ws2812b.cpp ****             WS2812B::extractGreen(startColor) - colorIterate * stepGreen,
  64:App/WS2812B/ws2812b.cpp ****             WS2812B::extractBlue(startColor) - colorIterate * stepBlue
  65:App/WS2812B/ws2812b.cpp ****         );
  66:App/WS2812B/ws2812b.cpp ****         _targetColorData[end] = WS2812B::combineRGB(
  67:App/WS2812B/ws2812b.cpp ****             WS2812B::extractRed(endColor) + colorIterate * stepRed,
  68:App/WS2812B/ws2812b.cpp ****             WS2812B::extractGreen(endColor) + colorIterate * stepGreen,
  69:App/WS2812B/ws2812b.cpp ****             WS2812B::extractBlue(endColor) + colorIterate * stepBlue
  70:App/WS2812B/ws2812b.cpp ****         );
  71:App/WS2812B/ws2812b.cpp ****         colorIterate++; start++; end--;
  72:App/WS2812B/ws2812b.cpp ****     }
  73:App/WS2812B/ws2812b.cpp **** }
  74:App/WS2812B/ws2812b.cpp **** 
  75:App/WS2812B/ws2812b.cpp **** void WS2812B::render()
  76:App/WS2812B/ws2812b.cpp **** {
ARM GAS  C:\Users\DARSTE~1\AppData\Local\Temp\ccBVkiXg.s 			page 6


  77:App/WS2812B/ws2812b.cpp ****     memcpy(_colorData, _targetColorData, _ledsCount * 4);
  78:App/WS2812B/ws2812b.cpp ****     WS2812B::updateBuffer();
  79:App/WS2812B/ws2812b.cpp **** 
  80:App/WS2812B/ws2812b.cpp ****     HAL_TIM_PWM_Start_DMA(
  81:App/WS2812B/ws2812b.cpp ****         _PWMgenerator, _channel,
  82:App/WS2812B/ws2812b.cpp ****         (uint32_t *)_buffer,
  83:App/WS2812B/ws2812b.cpp ****         _ledsCount * _bufferDataMultiplier
  84:App/WS2812B/ws2812b.cpp ****     );
  85:App/WS2812B/ws2812b.cpp **** 
  86:App/WS2812B/ws2812b.cpp ****     UPDATE_STATE = WS2812B_UPDATE_ONGOING;
  87:App/WS2812B/ws2812b.cpp ****     while (UPDATE_STATE == WS2812B_UPDATE_ONGOING);
  88:App/WS2812B/ws2812b.cpp **** }
  89:App/WS2812B/ws2812b.cpp **** 
  90:App/WS2812B/ws2812b.cpp **** WS2812B_CONST WS2812B::transition()
  91:App/WS2812B/ws2812b.cpp **** {
 211              		.loc 1 91 1 is_stmt 1 view -0
 212              		.cfi_startproc
 213              		@ Volatile: function does not return.
 214              		@ args = 0, pretend = 0, frame = 0
 215              		@ frame_needed = 0, uses_anonymous_args = 0
 216              		@ link register save eliminated.
 217              		.loc 1 91 1 is_stmt 0 view .LVU49
 218              		.cfi_endproc
 219              	.LFE81:
 220              		.cantunwind
 221              		.fnend
 223              		.section	.text._ZN7WS2812B18startCallbackClockEv,"ax",%progbits
 224              		.align	1
 225              		.global	_ZN7WS2812B18startCallbackClockEv
 226              		.syntax unified
 227              		.thumb
 228              		.thumb_func
 230              	_ZN7WS2812B18startCallbackClockEv:
 231              		.fnstart
 232              	.LVL12:
 233              	.LFB83:
  92:App/WS2812B/ws2812b.cpp ****     // uint16_t checkDifference = 0;
  93:App/WS2812B/ws2812b.cpp ****     // for (uint16_t ledIterate = 0; ledIterate < _ledsCount; ledIterate++)
  94:App/WS2812B/ws2812b.cpp ****     // {
  95:App/WS2812B/ws2812b.cpp ****     //     if (_colorData[ledIterate] == _targetColorData[ledIterate])
  96:App/WS2812B/ws2812b.cpp ****     //     {
  97:App/WS2812B/ws2812b.cpp ****     //         checkDifference++;
  98:App/WS2812B/ws2812b.cpp ****     //         continue;
  99:App/WS2812B/ws2812b.cpp ****     //     }
 100:App/WS2812B/ws2812b.cpp **** 
 101:App/WS2812B/ws2812b.cpp ****     //     uint8_t currentRed = WS2812B::extractRed(_colorData[ledIterate]);
 102:App/WS2812B/ws2812b.cpp ****     //     uint8_t currentGreen = WS2812B::extractGreen(_colorData[ledIterate]);
 103:App/WS2812B/ws2812b.cpp ****     //     uint8_t currentBlue = WS2812B::extractBlue(_colorData[ledIterate]);
 104:App/WS2812B/ws2812b.cpp **** 
 105:App/WS2812B/ws2812b.cpp ****     //     uint8_t targetRed = WS2812B::extractRed(_targetColorData[ledIterate]);
 106:App/WS2812B/ws2812b.cpp ****     //     uint8_t targetGreen = WS2812B::extractGreen(_targetColorData[ledIterate]);
 107:App/WS2812B/ws2812b.cpp ****     //     uint8_t targetBlue = WS2812B::extractBlue(_targetColorData[ledIterate]);
 108:App/WS2812B/ws2812b.cpp **** 
 109:App/WS2812B/ws2812b.cpp ****     //     if (currentRed < targetRed) currentRed++;
 110:App/WS2812B/ws2812b.cpp ****     //     else if (currentRed > targetRed) currentRed--;
 111:App/WS2812B/ws2812b.cpp **** 
 112:App/WS2812B/ws2812b.cpp ****     //     if (currentGreen < targetGreen) currentGreen++;
ARM GAS  C:\Users\DARSTE~1\AppData\Local\Temp\ccBVkiXg.s 			page 7


 113:App/WS2812B/ws2812b.cpp ****     //     else if (currentGreen > targetGreen) currentGreen--;
 114:App/WS2812B/ws2812b.cpp **** 
 115:App/WS2812B/ws2812b.cpp ****     //     if (currentBlue < targetBlue) currentBlue++;
 116:App/WS2812B/ws2812b.cpp ****     //     else if (currentBlue > targetBlue) currentBlue--;
 117:App/WS2812B/ws2812b.cpp **** 
 118:App/WS2812B/ws2812b.cpp ****     //     _colorData[ledIterate] = WS2812B::combineRGB(currentRed, currentGreen, currentBlue);
 119:App/WS2812B/ws2812b.cpp ****     // }
 120:App/WS2812B/ws2812b.cpp **** 
 121:App/WS2812B/ws2812b.cpp ****     // if (checkDifference == _ledsCount)
 122:App/WS2812B/ws2812b.cpp ****     //     return WS2812B_TRANSITION_FINISHED;
 123:App/WS2812B/ws2812b.cpp **** 
 124:App/WS2812B/ws2812b.cpp ****     // WS2812B::updateBuffer();
 125:App/WS2812B/ws2812b.cpp **** 
 126:App/WS2812B/ws2812b.cpp ****     // HAL_TIM_PWM_Start_DMA(
 127:App/WS2812B/ws2812b.cpp ****     //     _PWMgenerator, _channel,
 128:App/WS2812B/ws2812b.cpp ****     //     (uint32_t *)_buffer,
 129:App/WS2812B/ws2812b.cpp ****     //     _ledsCount * _bufferDataMultiplier
 130:App/WS2812B/ws2812b.cpp ****     // );
 131:App/WS2812B/ws2812b.cpp **** 
 132:App/WS2812B/ws2812b.cpp ****     // UPDATE_STATE = WS2812B_UPDATE_ONGOING;
 133:App/WS2812B/ws2812b.cpp ****     // while (UPDATE_STATE == WS2812B_UPDATE_ONGOING);
 134:App/WS2812B/ws2812b.cpp **** 
 135:App/WS2812B/ws2812b.cpp ****     // return (WS2812B_CONST)0;
 136:App/WS2812B/ws2812b.cpp **** }
 137:App/WS2812B/ws2812b.cpp **** 
 138:App/WS2812B/ws2812b.cpp **** WS2812B_CONST WS2812B::transition(float *timeTick, float duration)
 139:App/WS2812B/ws2812b.cpp **** {
 140:App/WS2812B/ws2812b.cpp ****     if (*timeTick > duration)
 141:App/WS2812B/ws2812b.cpp ****     {
 142:App/WS2812B/ws2812b.cpp ****         free(_transRed); free(_transGreen); free(_transBlue);
 143:App/WS2812B/ws2812b.cpp ****         free(_prevColorData);
 144:App/WS2812B/ws2812b.cpp ****         return WS2812B_TRANSITION_FINISHED;
 145:App/WS2812B/ws2812b.cpp ****     }
 146:App/WS2812B/ws2812b.cpp **** 
 147:App/WS2812B/ws2812b.cpp ****     if (duration <= 0.00f)
 148:App/WS2812B/ws2812b.cpp ****         return WS2812B_TRANSITION_FINISHED;
 149:App/WS2812B/ws2812b.cpp **** 
 150:App/WS2812B/ws2812b.cpp ****     if (*timeTick == 0.00f)
 151:App/WS2812B/ws2812b.cpp ****     {
 152:App/WS2812B/ws2812b.cpp ****         *timeTick = *timeTick + duration / 1000.0f; // Prevent accidental memory leak
 153:App/WS2812B/ws2812b.cpp ****         _transRed = (float *)calloc(_ledsCount, sizeof(uint32_t));
 154:App/WS2812B/ws2812b.cpp ****         _transGreen = (float *)calloc(_ledsCount, sizeof(uint32_t));
 155:App/WS2812B/ws2812b.cpp ****         _transBlue = (float *)calloc(_ledsCount, sizeof(uint32_t));
 156:App/WS2812B/ws2812b.cpp ****         _prevColorData = (uint32_t *)calloc(_ledsCount, sizeof(uint32_t));
 157:App/WS2812B/ws2812b.cpp ****         for (uint16_t ledIterate = 0; ledIterate < _ledsCount; ledIterate++)
 158:App/WS2812B/ws2812b.cpp ****         {
 159:App/WS2812B/ws2812b.cpp ****             _transRed[ledIterate] = (float)WS2812B::extractRed(_targetColorData[ledIterate]) - (flo
 160:App/WS2812B/ws2812b.cpp ****             _transGreen[ledIterate] = (float)WS2812B::extractGreen(_targetColorData[ledIterate]) - 
 161:App/WS2812B/ws2812b.cpp ****             _transBlue[ledIterate] = (float)WS2812B::extractBlue(_targetColorData[ledIterate]) - (f
 162:App/WS2812B/ws2812b.cpp ****             _transRed[ledIterate] = _transRed[ledIterate] / duration;
 163:App/WS2812B/ws2812b.cpp ****             _transGreen[ledIterate] = _transGreen[ledIterate] / duration;
 164:App/WS2812B/ws2812b.cpp ****             _transBlue[ledIterate] = _transBlue[ledIterate] / duration;
 165:App/WS2812B/ws2812b.cpp ****         }
 166:App/WS2812B/ws2812b.cpp ****         for (uint16_t ledIterate = 0; ledIterate < _ledsCount; ledIterate++)
 167:App/WS2812B/ws2812b.cpp ****             _prevColorData[ledIterate] = _colorData[ledIterate];
 168:App/WS2812B/ws2812b.cpp ****     }
 169:App/WS2812B/ws2812b.cpp **** 
ARM GAS  C:\Users\DARSTE~1\AppData\Local\Temp\ccBVkiXg.s 			page 8


 170:App/WS2812B/ws2812b.cpp ****     for (uint16_t ledIterate = 0; ledIterate < _ledsCount; ledIterate++)
 171:App/WS2812B/ws2812b.cpp ****         _colorData[ledIterate] = WS2812B::combineRGB(
 172:App/WS2812B/ws2812b.cpp ****             WS2812B::extractRed(_prevColorData[ledIterate]) + *timeTick * _transRed[ledIterate],
 173:App/WS2812B/ws2812b.cpp ****             WS2812B::extractGreen(_prevColorData[ledIterate]) + *timeTick * _transGreen[ledIterate]
 174:App/WS2812B/ws2812b.cpp ****             WS2812B::extractBlue(_prevColorData[ledIterate]) + *timeTick * _transBlue[ledIterate]
 175:App/WS2812B/ws2812b.cpp ****         );
 176:App/WS2812B/ws2812b.cpp **** 
 177:App/WS2812B/ws2812b.cpp ****     WS2812B::updateBuffer();
 178:App/WS2812B/ws2812b.cpp **** 
 179:App/WS2812B/ws2812b.cpp ****     HAL_TIM_PWM_Start_DMA(
 180:App/WS2812B/ws2812b.cpp ****         _PWMgenerator, _channel,
 181:App/WS2812B/ws2812b.cpp ****         (uint32_t *)_buffer,
 182:App/WS2812B/ws2812b.cpp ****         _ledsCount * _bufferDataMultiplier
 183:App/WS2812B/ws2812b.cpp ****     );
 184:App/WS2812B/ws2812b.cpp **** 
 185:App/WS2812B/ws2812b.cpp ****     UPDATE_STATE = WS2812B_UPDATE_ONGOING;
 186:App/WS2812B/ws2812b.cpp ****     while (UPDATE_STATE == WS2812B_UPDATE_ONGOING);
 187:App/WS2812B/ws2812b.cpp **** 
 188:App/WS2812B/ws2812b.cpp ****     return (WS2812B_CONST)0;
 189:App/WS2812B/ws2812b.cpp **** }
 190:App/WS2812B/ws2812b.cpp **** 
 191:App/WS2812B/ws2812b.cpp ****  void WS2812B::startCallbackClock()
 192:App/WS2812B/ws2812b.cpp ****  { HAL_TIM_Base_Start_IT(_PWMgenerator); }
 234              		.loc 1 192 2 is_stmt 1 view -0
 235              		.cfi_startproc
 236              		@ args = 0, pretend = 0, frame = 0
 237              		@ frame_needed = 0, uses_anonymous_args = 0
 238              		.loc 1 192 2 is_stmt 0 view .LVU51
 239 0000 08B5     		push	{r3, lr}
 240              		.save {r3, lr}
 241              	.LCFI1:
 242              		.cfi_def_cfa_offset 8
 243              		.cfi_offset 3, -8
 244              		.cfi_offset 14, -4
 245              		.loc 1 192 4 is_stmt 1 view .LVU52
 246              		.loc 1 192 25 is_stmt 0 view .LVU53
 247 0002 4068     		ldr	r0, [r0, #4]
 248              	.LVL13:
 249              		.loc 1 192 25 view .LVU54
 250 0004 FFF7FEFF 		bl	HAL_TIM_Base_Start_IT
 251              	.LVL14:
 252              		.loc 1 192 42 view .LVU55
 253 0008 08BD     		pop	{r3, pc}
 254              		.cfi_endproc
 255              	.LFE83:
 256              		.fnend
 258              		.section	.text._ZN7WS2812B17stopCallbackClockEv,"ax",%progbits
 259              		.align	1
 260              		.global	_ZN7WS2812B17stopCallbackClockEv
 261              		.syntax unified
 262              		.thumb
 263              		.thumb_func
 265              	_ZN7WS2812B17stopCallbackClockEv:
 266              		.fnstart
 267              	.LVL15:
 268              	.LFB84:
 193:App/WS2812B/ws2812b.cpp ****   void WS2812B::stopCallbackClock()
ARM GAS  C:\Users\DARSTE~1\AppData\Local\Temp\ccBVkiXg.s 			page 9


 194:App/WS2812B/ws2812b.cpp ****  { HAL_TIM_Base_Stop_IT(_PWMgenerator); }
 269              		.loc 1 194 2 is_stmt 1 view -0
 270              		.cfi_startproc
 271              		@ args = 0, pretend = 0, frame = 0
 272              		@ frame_needed = 0, uses_anonymous_args = 0
 273              		.loc 1 194 2 is_stmt 0 view .LVU57
 274 0000 08B5     		push	{r3, lr}
 275              		.save {r3, lr}
 276              	.LCFI2:
 277              		.cfi_def_cfa_offset 8
 278              		.cfi_offset 3, -8
 279              		.cfi_offset 14, -4
 280              		.loc 1 194 4 is_stmt 1 view .LVU58
 281              		.loc 1 194 24 is_stmt 0 view .LVU59
 282 0002 4068     		ldr	r0, [r0, #4]
 283              	.LVL16:
 284              		.loc 1 194 24 view .LVU60
 285 0004 FFF7FEFF 		bl	HAL_TIM_Base_Stop_IT
 286              	.LVL17:
 287              		.loc 1 194 41 view .LVU61
 288 0008 08BD     		pop	{r3, pc}
 289              		.cfi_endproc
 290              	.LFE84:
 291              		.fnend
 293              		.section	.text._ZN7WS2812B10extractRedEm,"ax",%progbits
 294              		.align	1
 295              		.global	_ZN7WS2812B10extractRedEm
 296              		.syntax unified
 297              		.thumb
 298              		.thumb_func
 300              	_ZN7WS2812B10extractRedEm:
 301              		.fnstart
 302              	.LVL18:
 303              	.LFB85:
 195:App/WS2812B/ws2812b.cpp **** 
 196:App/WS2812B/ws2812b.cpp **** uint8_t WS2812B::extractRed(uint32_t RGB)
 197:App/WS2812B/ws2812b.cpp **** { return (uint8_t)((RGB >> 16) & 0xFF); }
 304              		.loc 1 197 1 is_stmt 1 view -0
 305              		.cfi_startproc
 306              		@ args = 0, pretend = 0, frame = 0
 307              		@ frame_needed = 0, uses_anonymous_args = 0
 308              		@ link register save eliminated.
 309              		.loc 1 197 3 view .LVU63
 310              		.loc 1 197 41 is_stmt 0 view .LVU64
 311 0000 C1F30740 		ubfx	r0, r1, #16, #8
 312              	.LVL19:
 313              		.loc 1 197 41 view .LVU65
 314 0004 7047     		bx	lr
 315              		.cfi_endproc
 316              	.LFE85:
 317              		.cantunwind
 318              		.fnend
 320              		.section	.text._ZN7WS2812B12extractGreenEm,"ax",%progbits
 321              		.align	1
 322              		.global	_ZN7WS2812B12extractGreenEm
 323              		.syntax unified
 324              		.thumb
ARM GAS  C:\Users\DARSTE~1\AppData\Local\Temp\ccBVkiXg.s 			page 10


 325              		.thumb_func
 327              	_ZN7WS2812B12extractGreenEm:
 328              		.fnstart
 329              	.LVL20:
 330              	.LFB86:
 198:App/WS2812B/ws2812b.cpp **** uint8_t WS2812B::extractGreen(uint32_t RGB)
 199:App/WS2812B/ws2812b.cpp **** { return (uint8_t)((RGB >> 8) & 0xFF); }
 331              		.loc 1 199 1 is_stmt 1 view -0
 332              		.cfi_startproc
 333              		@ args = 0, pretend = 0, frame = 0
 334              		@ frame_needed = 0, uses_anonymous_args = 0
 335              		@ link register save eliminated.
 336              		.loc 1 199 3 view .LVU67
 337              		.loc 1 199 40 is_stmt 0 view .LVU68
 338 0000 C1F30720 		ubfx	r0, r1, #8, #8
 339              	.LVL21:
 340              		.loc 1 199 40 view .LVU69
 341 0004 7047     		bx	lr
 342              		.cfi_endproc
 343              	.LFE86:
 344              		.cantunwind
 345              		.fnend
 347              		.section	.text._ZN7WS2812B11extractBlueEm,"ax",%progbits
 348              		.align	1
 349              		.global	_ZN7WS2812B11extractBlueEm
 350              		.syntax unified
 351              		.thumb
 352              		.thumb_func
 354              	_ZN7WS2812B11extractBlueEm:
 355              		.fnstart
 356              	.LVL22:
 357              	.LFB87:
 200:App/WS2812B/ws2812b.cpp **** uint8_t WS2812B::extractBlue(uint32_t RGB)
 201:App/WS2812B/ws2812b.cpp **** { return (uint8_t)((RGB >> 0) & 0xFF); }
 358              		.loc 1 201 1 is_stmt 1 view -0
 359              		.cfi_startproc
 360              		@ args = 0, pretend = 0, frame = 0
 361              		@ frame_needed = 0, uses_anonymous_args = 0
 362              		@ link register save eliminated.
 363              		.loc 1 201 3 view .LVU71
 364              		.loc 1 201 40 is_stmt 0 view .LVU72
 365 0000 C8B2     		uxtb	r0, r1
 366              	.LVL23:
 367              		.loc 1 201 40 view .LVU73
 368 0002 7047     		bx	lr
 369              		.cfi_endproc
 370              	.LFE87:
 371              		.cantunwind
 372              		.fnend
 374              		.section	.text._ZN7WS2812B10combineRGBEhhh,"ax",%progbits
 375              		.align	1
 376              		.global	_ZN7WS2812B10combineRGBEhhh
 377              		.syntax unified
 378              		.thumb
 379              		.thumb_func
 381              	_ZN7WS2812B10combineRGBEhhh:
 382              		.fnstart
ARM GAS  C:\Users\DARSTE~1\AppData\Local\Temp\ccBVkiXg.s 			page 11


 383              	.LVL24:
 384              	.LFB88:
 202:App/WS2812B/ws2812b.cpp **** uint32_t WS2812B::combineRGB(uint8_t red, uint8_t green, uint8_t blue)
 203:App/WS2812B/ws2812b.cpp **** {
 385              		.loc 1 203 1 is_stmt 1 view -0
 386              		.cfi_startproc
 387              		@ args = 0, pretend = 0, frame = 0
 388              		@ frame_needed = 0, uses_anonymous_args = 0
 389              		@ link register save eliminated.
 204:App/WS2812B/ws2812b.cpp ****     uint32_t RGB = (
 390              		.loc 1 204 5 view .LVU75
 205:App/WS2812B/ws2812b.cpp ****         (uint32_t)red << 16 |
 206:App/WS2812B/ws2812b.cpp ****         (uint32_t)green << 8 |
 391              		.loc 1 206 25 is_stmt 0 view .LVU76
 392 0000 1202     		lsls	r2, r2, #8
 393              	.LVL25:
 205:App/WS2812B/ws2812b.cpp ****         (uint32_t)red << 16 |
 394              		.loc 1 205 29 view .LVU77
 395 0002 42EA0142 		orr	r2, r2, r1, lsl #16
 396              	.LVL26:
 207:App/WS2812B/ws2812b.cpp ****         (uint32_t)blue << 0
 208:App/WS2812B/ws2812b.cpp ****     );
 209:App/WS2812B/ws2812b.cpp ****     return RGB;
 397              		.loc 1 209 5 is_stmt 1 view .LVU78
 210:App/WS2812B/ws2812b.cpp **** }
 398              		.loc 1 210 1 is_stmt 0 view .LVU79
 399 0006 42EA0300 		orr	r0, r2, r3
 400              	.LVL27:
 401              		.loc 1 210 1 view .LVU80
 402 000a 7047     		bx	lr
 403              		.cfi_endproc
 404              	.LFE88:
 405              		.cantunwind
 406              		.fnend
 408              		.global	__aeabi_ui2f
 409              		.global	__aeabi_fsub
 410              		.global	__aeabi_i2f
 411              		.global	__aeabi_fdiv
 412              		.global	__aeabi_fmul
 413              		.global	__aeabi_f2uiz
 414              		.global	__aeabi_fadd
 415              		.section	.text._ZN7WS2812B15gradient2ColorsEmtmt,"ax",%progbits
 416              		.align	1
 417              		.global	_ZN7WS2812B15gradient2ColorsEmtmt
 418              		.syntax unified
 419              		.thumb
 420              		.thumb_func
 422              	_ZN7WS2812B15gradient2ColorsEmtmt:
 423              		.fnstart
 424              	.LVL28:
 425              	.LFB79:
  50:App/WS2812B/ws2812b.cpp ****     float stepRed = (float)WS2812B::extractRed(startColor) - (float)WS2812B::extractRed(endColor);
 426              		.loc 1 50 1 is_stmt 1 view -0
 427              		.cfi_startproc
 428              		@ args = 4, pretend = 0, frame = 48
 429              		@ frame_needed = 0, uses_anonymous_args = 0
  50:App/WS2812B/ws2812b.cpp ****     float stepRed = (float)WS2812B::extractRed(startColor) - (float)WS2812B::extractRed(endColor);
ARM GAS  C:\Users\DARSTE~1\AppData\Local\Temp\ccBVkiXg.s 			page 12


 430              		.loc 1 50 1 is_stmt 0 view .LVU82
 431 0000 2DE9F04F 		push	{r4, r5, r6, r7, r8, r9, r10, fp, lr}
 432              	.LCFI3:
 433              		.cfi_def_cfa_offset 36
 434              		.cfi_offset 4, -36
 435              		.cfi_offset 5, -32
 436              		.cfi_offset 6, -28
 437              		.cfi_offset 7, -24
 438              		.cfi_offset 8, -20
 439              		.cfi_offset 9, -16
 440              		.cfi_offset 10, -12
 441              		.cfi_offset 11, -8
 442              		.cfi_offset 14, -4
 443 0004 8DB0     		sub	sp, sp, #52
 444              	.LCFI4:
 445              		.cfi_def_cfa_offset 88
 446 0006 8346     		mov	fp, r0
 447 0008 0E46     		mov	r6, r1
 448 000a 9146     		mov	r9, r2
 449 000c 1D46     		mov	r5, r3
 450 000e BDF85840 		ldrh	r4, [sp, #88]
  51:App/WS2812B/ws2812b.cpp ****     float stepGreen = (float)WS2812B::extractGreen(startColor) - (float)WS2812B::extractGreen(endCo
 451              		.loc 1 51 5 is_stmt 1 view .LVU83
  51:App/WS2812B/ws2812b.cpp ****     float stepGreen = (float)WS2812B::extractGreen(startColor) - (float)WS2812B::extractGreen(endCo
 452              		.loc 1 51 47 is_stmt 0 view .LVU84
 453 0012 FFF7FEFF 		bl	_ZN7WS2812B10extractRedEm
 454              	.LVL29:
  51:App/WS2812B/ws2812b.cpp ****     float stepGreen = (float)WS2812B::extractGreen(startColor) - (float)WS2812B::extractGreen(endCo
 455              		.loc 1 51 47 view .LVU85
 456 0016 0390     		str	r0, [sp, #12]
  51:App/WS2812B/ws2812b.cpp ****     float stepGreen = (float)WS2812B::extractGreen(startColor) - (float)WS2812B::extractGreen(endCo
 457              		.loc 1 51 21 view .LVU86
 458 0018 FFF7FEFF 		bl	__aeabi_ui2f
 459              	.LVL30:
 460 001c 0746     		mov	r7, r0
  51:App/WS2812B/ws2812b.cpp ****     float stepGreen = (float)WS2812B::extractGreen(startColor) - (float)WS2812B::extractGreen(endCo
 461              		.loc 1 51 88 view .LVU87
 462 001e 2946     		mov	r1, r5
 463 0020 5846     		mov	r0, fp
 464 0022 FFF7FEFF 		bl	_ZN7WS2812B10extractRedEm
 465              	.LVL31:
 466 0026 0490     		str	r0, [sp, #16]
  51:App/WS2812B/ws2812b.cpp ****     float stepGreen = (float)WS2812B::extractGreen(startColor) - (float)WS2812B::extractGreen(endCo
 467              		.loc 1 51 62 view .LVU88
 468 0028 FFF7FEFF 		bl	__aeabi_ui2f
 469              	.LVL32:
 470 002c 0146     		mov	r1, r0
  51:App/WS2812B/ws2812b.cpp ****     float stepGreen = (float)WS2812B::extractGreen(startColor) - (float)WS2812B::extractGreen(endCo
 471              		.loc 1 51 97 view .LVU89
 472 002e 3846     		mov	r0, r7
 473 0030 FFF7FEFF 		bl	__aeabi_fsub
 474              	.LVL33:
 475 0034 8046     		mov	r8, r0
 476              	.LVL34:
  52:App/WS2812B/ws2812b.cpp ****     float stepBlue = (float)WS2812B::extractBlue(startColor) - (float)WS2812B::extractBlue(endColor
 477              		.loc 1 52 5 is_stmt 1 view .LVU90
  52:App/WS2812B/ws2812b.cpp ****     float stepBlue = (float)WS2812B::extractBlue(startColor) - (float)WS2812B::extractBlue(endColor
ARM GAS  C:\Users\DARSTE~1\AppData\Local\Temp\ccBVkiXg.s 			page 13


 478              		.loc 1 52 51 is_stmt 0 view .LVU91
 479 0036 3146     		mov	r1, r6
 480 0038 5846     		mov	r0, fp
 481              	.LVL35:
  52:App/WS2812B/ws2812b.cpp ****     float stepBlue = (float)WS2812B::extractBlue(startColor) - (float)WS2812B::extractBlue(endColor
 482              		.loc 1 52 51 view .LVU92
 483 003a FFF7FEFF 		bl	_ZN7WS2812B12extractGreenEm
 484              	.LVL36:
 485 003e 0590     		str	r0, [sp, #20]
  52:App/WS2812B/ws2812b.cpp ****     float stepBlue = (float)WS2812B::extractBlue(startColor) - (float)WS2812B::extractBlue(endColor
 486              		.loc 1 52 23 view .LVU93
 487 0040 FFF7FEFF 		bl	__aeabi_ui2f
 488              	.LVL37:
 489 0044 0746     		mov	r7, r0
  52:App/WS2812B/ws2812b.cpp ****     float stepBlue = (float)WS2812B::extractBlue(startColor) - (float)WS2812B::extractBlue(endColor
 490              		.loc 1 52 94 view .LVU94
 491 0046 2946     		mov	r1, r5
 492 0048 5846     		mov	r0, fp
 493 004a FFF7FEFF 		bl	_ZN7WS2812B12extractGreenEm
 494              	.LVL38:
 495 004e 0690     		str	r0, [sp, #24]
  52:App/WS2812B/ws2812b.cpp ****     float stepBlue = (float)WS2812B::extractBlue(startColor) - (float)WS2812B::extractBlue(endColor
 496              		.loc 1 52 66 view .LVU95
 497 0050 FFF7FEFF 		bl	__aeabi_ui2f
 498              	.LVL39:
 499 0054 0146     		mov	r1, r0
  52:App/WS2812B/ws2812b.cpp ****     float stepBlue = (float)WS2812B::extractBlue(startColor) - (float)WS2812B::extractBlue(endColor
 500              		.loc 1 52 103 view .LVU96
 501 0056 3846     		mov	r0, r7
 502 0058 FFF7FEFF 		bl	__aeabi_fsub
 503              	.LVL40:
 504 005c 0746     		mov	r7, r0
 505              	.LVL41:
  53:App/WS2812B/ws2812b.cpp ****     stepRed = stepRed / (float)(end - start);
 506              		.loc 1 53 5 is_stmt 1 view .LVU97
  53:App/WS2812B/ws2812b.cpp ****     stepRed = stepRed / (float)(end - start);
 507              		.loc 1 53 49 is_stmt 0 view .LVU98
 508 005e 3146     		mov	r1, r6
 509 0060 5846     		mov	r0, fp
 510              	.LVL42:
  53:App/WS2812B/ws2812b.cpp ****     stepRed = stepRed / (float)(end - start);
 511              		.loc 1 53 49 view .LVU99
 512 0062 FFF7FEFF 		bl	_ZN7WS2812B11extractBlueEm
 513              	.LVL43:
 514 0066 0790     		str	r0, [sp, #28]
  53:App/WS2812B/ws2812b.cpp ****     stepRed = stepRed / (float)(end - start);
 515              		.loc 1 53 22 view .LVU100
 516 0068 FFF7FEFF 		bl	__aeabi_ui2f
 517              	.LVL44:
 518 006c 0646     		mov	r6, r0
 519              	.LVL45:
  53:App/WS2812B/ws2812b.cpp ****     stepRed = stepRed / (float)(end - start);
 520              		.loc 1 53 91 view .LVU101
 521 006e 2946     		mov	r1, r5
 522 0070 5846     		mov	r0, fp
 523 0072 FFF7FEFF 		bl	_ZN7WS2812B11extractBlueEm
 524              	.LVL46:
ARM GAS  C:\Users\DARSTE~1\AppData\Local\Temp\ccBVkiXg.s 			page 14


 525 0076 0890     		str	r0, [sp, #32]
  53:App/WS2812B/ws2812b.cpp ****     stepRed = stepRed / (float)(end - start);
 526              		.loc 1 53 64 view .LVU102
 527 0078 FFF7FEFF 		bl	__aeabi_ui2f
 528              	.LVL47:
 529 007c 0146     		mov	r1, r0
  53:App/WS2812B/ws2812b.cpp ****     stepRed = stepRed / (float)(end - start);
 530              		.loc 1 53 100 view .LVU103
 531 007e 3046     		mov	r0, r6
 532 0080 FFF7FEFF 		bl	__aeabi_fsub
 533              	.LVL48:
 534 0084 0646     		mov	r6, r0
 535              	.LVL49:
  54:App/WS2812B/ws2812b.cpp ****     stepGreen = stepGreen / (float)(end - start);
 536              		.loc 1 54 5 is_stmt 1 view .LVU104
  54:App/WS2812B/ws2812b.cpp ****     stepGreen = stepGreen / (float)(end - start);
 537              		.loc 1 54 25 is_stmt 0 view .LVU105
 538 0086 A4EB0900 		sub	r0, r4, r9
 539              	.LVL50:
  54:App/WS2812B/ws2812b.cpp ****     stepGreen = stepGreen / (float)(end - start);
 540              		.loc 1 54 25 view .LVU106
 541 008a FFF7FEFF 		bl	__aeabi_i2f
 542              	.LVL51:
 543 008e 0546     		mov	r5, r0
 544              	.LVL52:
  54:App/WS2812B/ws2812b.cpp ****     stepGreen = stepGreen / (float)(end - start);
 545              		.loc 1 54 13 view .LVU107
 546 0090 0146     		mov	r1, r0
 547 0092 4046     		mov	r0, r8
 548 0094 FFF7FEFF 		bl	__aeabi_fdiv
 549              	.LVL53:
 550 0098 0990     		str	r0, [sp, #36]	@ float
 551              	.LVL54:
  55:App/WS2812B/ws2812b.cpp ****     stepBlue = stepBlue / (float)(end - start);
 552              		.loc 1 55 5 is_stmt 1 view .LVU108
  55:App/WS2812B/ws2812b.cpp ****     stepBlue = stepBlue / (float)(end - start);
 553              		.loc 1 55 15 is_stmt 0 view .LVU109
 554 009a 2946     		mov	r1, r5
 555 009c 3846     		mov	r0, r7
 556              	.LVL55:
  55:App/WS2812B/ws2812b.cpp ****     stepBlue = stepBlue / (float)(end - start);
 557              		.loc 1 55 15 view .LVU110
 558 009e FFF7FEFF 		bl	__aeabi_fdiv
 559              	.LVL56:
 560 00a2 0A90     		str	r0, [sp, #40]	@ float
 561              	.LVL57:
  56:App/WS2812B/ws2812b.cpp **** 
 562              		.loc 1 56 5 is_stmt 1 view .LVU111
  56:App/WS2812B/ws2812b.cpp **** 
 563              		.loc 1 56 14 is_stmt 0 view .LVU112
 564 00a4 2946     		mov	r1, r5
 565 00a6 3046     		mov	r0, r6
 566              	.LVL58:
  56:App/WS2812B/ws2812b.cpp **** 
 567              		.loc 1 56 14 view .LVU113
 568 00a8 FFF7FEFF 		bl	__aeabi_fdiv
 569              	.LVL59:
ARM GAS  C:\Users\DARSTE~1\AppData\Local\Temp\ccBVkiXg.s 			page 15


 570 00ac 0B90     		str	r0, [sp, #44]	@ float
 571              	.LVL60:
  58:App/WS2812B/ws2812b.cpp ****     while (start <= end)
 572              		.loc 1 58 5 is_stmt 1 view .LVU114
  59:App/WS2812B/ws2812b.cpp ****     {
 573              		.loc 1 59 5 view .LVU115
  58:App/WS2812B/ws2812b.cpp ****     while (start <= end)
 574              		.loc 1 58 14 is_stmt 0 view .LVU116
 575 00ae 4FF0000A 		mov	r10, #0
  59:App/WS2812B/ws2812b.cpp ****     {
 576              		.loc 1 59 5 view .LVU117
 577 00b2 6EE0     		b	.L19
 578              	.LVL61:
 579              	.L20:
  61:App/WS2812B/ws2812b.cpp ****             WS2812B::extractRed(startColor) - colorIterate * stepRed,
 580              		.loc 1 61 9 is_stmt 1 view .LVU118
  62:App/WS2812B/ws2812b.cpp ****             WS2812B::extractGreen(startColor) - colorIterate * stepGreen,
 581              		.loc 1 62 60 is_stmt 0 view .LVU119
 582 00b4 5046     		mov	r0, r10
 583 00b6 FFF7FEFF 		bl	__aeabi_i2f
 584              	.LVL62:
 585 00ba 0546     		mov	r5, r0
 586 00bc 0999     		ldr	r1, [sp, #36]	@ float
 587 00be FFF7FEFF 		bl	__aeabi_fmul
 588              	.LVL63:
 589 00c2 0746     		mov	r7, r0
  62:App/WS2812B/ws2812b.cpp ****             WS2812B::extractGreen(startColor) - colorIterate * stepGreen,
 590              		.loc 1 62 45 view .LVU120
 591 00c4 0398     		ldr	r0, [sp, #12]
 592 00c6 FFF7FEFF 		bl	__aeabi_i2f
 593              	.LVL64:
 594 00ca 3946     		mov	r1, r7
 595 00cc FFF7FEFF 		bl	__aeabi_fsub
 596              	.LVL65:
 597 00d0 0090     		str	r0, [sp]	@ float
  63:App/WS2812B/ws2812b.cpp ****             WS2812B::extractBlue(startColor) - colorIterate * stepBlue
 598              		.loc 1 63 62 view .LVU121
 599 00d2 0A99     		ldr	r1, [sp, #40]	@ float
 600 00d4 2846     		mov	r0, r5
 601 00d6 FFF7FEFF 		bl	__aeabi_fmul
 602              	.LVL66:
 603 00da 0646     		mov	r6, r0
  63:App/WS2812B/ws2812b.cpp ****             WS2812B::extractBlue(startColor) - colorIterate * stepBlue
 604              		.loc 1 63 47 view .LVU122
 605 00dc 0598     		ldr	r0, [sp, #20]
 606 00de FFF7FEFF 		bl	__aeabi_i2f
 607              	.LVL67:
 608 00e2 0196     		str	r6, [sp, #4]	@ float
 609 00e4 3146     		mov	r1, r6
 610 00e6 FFF7FEFF 		bl	__aeabi_fsub
 611              	.LVL68:
 612 00ea 8046     		mov	r8, r0
  64:App/WS2812B/ws2812b.cpp ****         );
 613              		.loc 1 64 61 view .LVU123
 614 00ec 0B99     		ldr	r1, [sp, #44]	@ float
 615 00ee 2846     		mov	r0, r5
 616 00f0 FFF7FEFF 		bl	__aeabi_fmul
ARM GAS  C:\Users\DARSTE~1\AppData\Local\Temp\ccBVkiXg.s 			page 16


 617              	.LVL69:
 618 00f4 0546     		mov	r5, r0
  64:App/WS2812B/ws2812b.cpp ****         );
 619              		.loc 1 64 46 view .LVU124
 620 00f6 0798     		ldr	r0, [sp, #28]
 621 00f8 FFF7FEFF 		bl	__aeabi_i2f
 622              	.LVL70:
 623 00fc 0295     		str	r5, [sp, #8]	@ float
 624 00fe 2946     		mov	r1, r5
 625 0100 FFF7FEFF 		bl	__aeabi_fsub
 626              	.LVL71:
  61:App/WS2812B/ws2812b.cpp ****             WS2812B::extractRed(startColor) - colorIterate * stepRed,
 627              		.loc 1 61 9 view .LVU125
 628 0104 DBF81C50 		ldr	r5, [fp, #28]
  61:App/WS2812B/ws2812b.cpp ****             WS2812B::extractRed(startColor) - colorIterate * stepRed,
 629              		.loc 1 61 54 view .LVU126
 630 0108 FFF7FEFF 		bl	__aeabi_f2uiz
 631              	.LVL72:
 632 010c C6B2     		uxtb	r6, r0
 633 010e 4046     		mov	r0, r8
 634 0110 FFF7FEFF 		bl	__aeabi_f2uiz
 635              	.LVL73:
 636 0114 5FFA80F8 		uxtb	r8, r0
 637 0118 0098     		ldr	r0, [sp]	@ float
 638 011a FFF7FEFF 		bl	__aeabi_f2uiz
 639              	.LVL74:
 640 011e 3346     		mov	r3, r6
 641 0120 4246     		mov	r2, r8
 642 0122 C1B2     		uxtb	r1, r0
 643 0124 5846     		mov	r0, fp
 644 0126 FFF7FEFF 		bl	_ZN7WS2812B10combineRGBEhhh
 645              	.LVL75:
  61:App/WS2812B/ws2812b.cpp ****             WS2812B::extractRed(startColor) - colorIterate * stepRed,
 646              		.loc 1 61 33 view .LVU127
 647 012a 45F82900 		str	r0, [r5, r9, lsl #2]
  66:App/WS2812B/ws2812b.cpp ****             WS2812B::extractRed(endColor) + colorIterate * stepRed,
 648              		.loc 1 66 9 is_stmt 1 view .LVU128
  67:App/WS2812B/ws2812b.cpp ****             WS2812B::extractGreen(endColor) + colorIterate * stepGreen,
 649              		.loc 1 67 43 is_stmt 0 view .LVU129
 650 012e 0498     		ldr	r0, [sp, #16]
 651 0130 FFF7FEFF 		bl	__aeabi_i2f
 652              	.LVL76:
 653 0134 3946     		mov	r1, r7
 654 0136 FFF7FEFF 		bl	__aeabi_fadd
 655              	.LVL77:
 656 013a 0746     		mov	r7, r0
  68:App/WS2812B/ws2812b.cpp ****             WS2812B::extractBlue(endColor) + colorIterate * stepBlue
 657              		.loc 1 68 45 view .LVU130
 658 013c 0698     		ldr	r0, [sp, #24]
 659 013e FFF7FEFF 		bl	__aeabi_i2f
 660              	.LVL78:
 661 0142 0199     		ldr	r1, [sp, #4]	@ float
 662 0144 FFF7FEFF 		bl	__aeabi_fadd
 663              	.LVL79:
 664 0148 0646     		mov	r6, r0
  69:App/WS2812B/ws2812b.cpp ****         );
 665              		.loc 1 69 44 view .LVU131
ARM GAS  C:\Users\DARSTE~1\AppData\Local\Temp\ccBVkiXg.s 			page 17


 666 014a 0898     		ldr	r0, [sp, #32]
 667 014c FFF7FEFF 		bl	__aeabi_i2f
 668              	.LVL80:
 669 0150 0299     		ldr	r1, [sp, #8]	@ float
 670 0152 FFF7FEFF 		bl	__aeabi_fadd
 671              	.LVL81:
  66:App/WS2812B/ws2812b.cpp ****             WS2812B::extractRed(endColor) + colorIterate * stepRed,
 672              		.loc 1 66 9 view .LVU132
 673 0156 DBF81C80 		ldr	r8, [fp, #28]
  66:App/WS2812B/ws2812b.cpp ****             WS2812B::extractRed(endColor) + colorIterate * stepRed,
 674              		.loc 1 66 52 view .LVU133
 675 015a FFF7FEFF 		bl	__aeabi_f2uiz
 676              	.LVL82:
 677 015e C5B2     		uxtb	r5, r0
 678 0160 3046     		mov	r0, r6
 679 0162 FFF7FEFF 		bl	__aeabi_f2uiz
 680              	.LVL83:
 681 0166 C6B2     		uxtb	r6, r0
 682 0168 3846     		mov	r0, r7
 683 016a FFF7FEFF 		bl	__aeabi_f2uiz
 684              	.LVL84:
 685 016e 2B46     		mov	r3, r5
 686 0170 3246     		mov	r2, r6
 687 0172 C1B2     		uxtb	r1, r0
 688 0174 5846     		mov	r0, fp
 689 0176 FFF7FEFF 		bl	_ZN7WS2812B10combineRGBEhhh
 690              	.LVL85:
  66:App/WS2812B/ws2812b.cpp ****             WS2812B::extractRed(endColor) + colorIterate * stepRed,
 691              		.loc 1 66 31 view .LVU134
 692 017a 48F82400 		str	r0, [r8, r4, lsl #2]
  71:App/WS2812B/ws2812b.cpp ****     }
 693              		.loc 1 71 9 is_stmt 1 view .LVU135
  71:App/WS2812B/ws2812b.cpp ****     }
 694              		.loc 1 71 21 is_stmt 0 view .LVU136
 695 017e 0AF10103 		add	r3, r10, #1
 696 0182 1FFA83FA 		uxth	r10, r3
 697              	.LVL86:
  71:App/WS2812B/ws2812b.cpp ****     }
 698              		.loc 1 71 25 is_stmt 1 view .LVU137
  71:App/WS2812B/ws2812b.cpp ****     }
 699              		.loc 1 71 30 is_stmt 0 view .LVU138
 700 0186 09F10109 		add	r9, r9, #1
 701              	.LVL87:
  71:App/WS2812B/ws2812b.cpp ****     }
 702              		.loc 1 71 30 view .LVU139
 703 018a 1FFA89F9 		uxth	r9, r9
 704              	.LVL88:
  71:App/WS2812B/ws2812b.cpp ****     }
 705              		.loc 1 71 34 is_stmt 1 view .LVU140
  71:App/WS2812B/ws2812b.cpp ****     }
 706              		.loc 1 71 37 is_stmt 0 view .LVU141
 707 018e 013C     		subs	r4, r4, #1
 708              	.LVL89:
  71:App/WS2812B/ws2812b.cpp ****     }
 709              		.loc 1 71 37 view .LVU142
 710 0190 A4B2     		uxth	r4, r4
 711              	.LVL90:
ARM GAS  C:\Users\DARSTE~1\AppData\Local\Temp\ccBVkiXg.s 			page 18


 712              	.L19:
  59:App/WS2812B/ws2812b.cpp ****     {
 713              		.loc 1 59 18 is_stmt 1 view .LVU143
 714 0192 A145     		cmp	r9, r4
 715 0194 8ED9     		bls	.L20
  73:App/WS2812B/ws2812b.cpp **** 
 716              		.loc 1 73 1 is_stmt 0 view .LVU144
 717 0196 0DB0     		add	sp, sp, #52
 718              	.LCFI5:
 719              		.cfi_def_cfa_offset 36
 720              		@ sp needed
 721 0198 BDE8F08F 		pop	{r4, r5, r6, r7, r8, r9, r10, fp, pc}
  73:App/WS2812B/ws2812b.cpp **** 
 722              		.loc 1 73 1 view .LVU145
 723              		.cfi_endproc
 724              	.LFE79:
 725              		.cantunwind
 726              		.fnend
 728              		.section	.text._ZN7WS2812B5toGRBEm,"ax",%progbits
 729              		.align	1
 730              		.global	_ZN7WS2812B5toGRBEm
 731              		.syntax unified
 732              		.thumb
 733              		.thumb_func
 735              	_ZN7WS2812B5toGRBEm:
 736              		.fnstart
 737              	.LVL91:
 738              	.LFB89:
 211:App/WS2812B/ws2812b.cpp **** uint32_t WS2812B::toGRB(uint32_t RGB)
 212:App/WS2812B/ws2812b.cpp **** {
 739              		.loc 1 212 1 is_stmt 1 view -0
 740              		.cfi_startproc
 741              		@ args = 0, pretend = 0, frame = 0
 742              		@ frame_needed = 0, uses_anonymous_args = 0
 743              		.loc 1 212 1 is_stmt 0 view .LVU147
 744 0000 70B5     		push	{r4, r5, r6, lr}
 745              	.LCFI6:
 746              		.cfi_def_cfa_offset 16
 747              		.cfi_offset 4, -16
 748              		.cfi_offset 5, -12
 749              		.cfi_offset 6, -8
 750              		.cfi_offset 14, -4
 751 0002 0546     		mov	r5, r0
 752 0004 0E46     		mov	r6, r1
 213:App/WS2812B/ws2812b.cpp ****     uint32_t GRB = (
 753              		.loc 1 213 5 is_stmt 1 view .LVU148
 214:App/WS2812B/ws2812b.cpp ****         (uint32_t)(WS2812B::extractGreen(RGB) << 16) |
 754              		.loc 1 214 41 is_stmt 0 view .LVU149
 755 0006 FFF7FEFF 		bl	_ZN7WS2812B12extractGreenEm
 756              	.LVL92:
 757              		.loc 1 214 9 view .LVU150
 758 000a 0404     		lsls	r4, r0, #16
 215:App/WS2812B/ws2812b.cpp ****         (uint32_t)(WS2812B::extractRed(RGB) << 8) |
 759              		.loc 1 215 39 view .LVU151
 760 000c 3146     		mov	r1, r6
 761 000e 2846     		mov	r0, r5
 762 0010 FFF7FEFF 		bl	_ZN7WS2812B10extractRedEm
ARM GAS  C:\Users\DARSTE~1\AppData\Local\Temp\ccBVkiXg.s 			page 19


 763              	.LVL93:
 214:App/WS2812B/ws2812b.cpp ****         (uint32_t)(WS2812B::extractGreen(RGB) << 16) |
 764              		.loc 1 214 54 view .LVU152
 765 0014 44EA0024 		orr	r4, r4, r0, lsl #8
 216:App/WS2812B/ws2812b.cpp ****         (uint32_t)(WS2812B::extractBlue(RGB) << 0)
 766              		.loc 1 216 40 view .LVU153
 767 0018 3146     		mov	r1, r6
 768 001a 2846     		mov	r0, r5
 769 001c FFF7FEFF 		bl	_ZN7WS2812B11extractBlueEm
 770              	.LVL94:
 217:App/WS2812B/ws2812b.cpp ****     );
 218:App/WS2812B/ws2812b.cpp ****     return GRB;
 771              		.loc 1 218 5 is_stmt 1 view .LVU154
 219:App/WS2812B/ws2812b.cpp **** }
 772              		.loc 1 219 1 is_stmt 0 view .LVU155
 773 0020 2043     		orrs	r0, r0, r4
 774              	.LVL95:
 775              		.loc 1 219 1 view .LVU156
 776 0022 70BD     		pop	{r4, r5, r6, pc}
 777              		.loc 1 219 1 view .LVU157
 778              		.cfi_endproc
 779              	.LFE89:
 780              		.cantunwind
 781              		.fnend
 783              		.section	.text._ZN7WS2812B12updateBufferEv,"ax",%progbits
 784              		.align	1
 785              		.global	_ZN7WS2812B12updateBufferEv
 786              		.syntax unified
 787              		.thumb
 788              		.thumb_func
 790              	_ZN7WS2812B12updateBufferEv:
 791              		.fnstart
 792              	.LVL96:
 793              	.LFB90:
 220:App/WS2812B/ws2812b.cpp **** 
 221:App/WS2812B/ws2812b.cpp **** void WS2812B::updateBuffer()
 222:App/WS2812B/ws2812b.cpp **** {
 794              		.loc 1 222 1 is_stmt 1 view -0
 795              		.cfi_startproc
 796              		@ args = 0, pretend = 0, frame = 0
 797              		@ frame_needed = 0, uses_anonymous_args = 0
 798              		.loc 1 222 1 is_stmt 0 view .LVU159
 799 0000 F8B5     		push	{r3, r4, r5, r6, r7, lr}
 800              	.LCFI7:
 801              		.cfi_def_cfa_offset 24
 802              		.cfi_offset 3, -24
 803              		.cfi_offset 4, -20
 804              		.cfi_offset 5, -16
 805              		.cfi_offset 6, -12
 806              		.cfi_offset 7, -8
 807              		.cfi_offset 14, -4
 808 0002 0546     		mov	r5, r0
 223:App/WS2812B/ws2812b.cpp ****     uint32_t bufferIndex = 0;
 809              		.loc 1 223 5 is_stmt 1 view .LVU160
 810              	.LVL97:
 224:App/WS2812B/ws2812b.cpp ****     for (uint16_t ledIndex = 0; ledIndex < _ledsCount; ledIndex++)
 811              		.loc 1 224 5 view .LVU161
ARM GAS  C:\Users\DARSTE~1\AppData\Local\Temp\ccBVkiXg.s 			page 20


 812              	.LBB4:
 813              		.loc 1 224 19 is_stmt 0 view .LVU162
 814 0004 0027     		movs	r7, #0
 815              	.LBE4:
 223:App/WS2812B/ws2812b.cpp ****     uint32_t bufferIndex = 0;
 816              		.loc 1 223 14 view .LVU163
 817 0006 3E46     		mov	r6, r7
 818              	.LBB7:
 819              		.loc 1 224 5 view .LVU164
 820 0008 16E0     		b	.L25
 821              	.LVL98:
 822              	.L26:
 823              	.LBB5:
 225:App/WS2812B/ws2812b.cpp ****         for (int8_t bitIndex = 23; bitIndex >= 0; bitIndex--)
 226:App/WS2812B/ws2812b.cpp ****         {
 227:App/WS2812B/ws2812b.cpp ****             _buffer[bufferIndex] = ((WS2812B::toGRB(_colorData[ledIndex]) >> bitIndex) & 0b1) ? _BI
 824              		.loc 1 227 95 discriminator 2 view .LVU165
 825 000a 6A69     		ldr	r2, [r5, #20]
 826              	.L27:
 827              		.loc 1 227 13 discriminator 4 view .LVU166
 828 000c 2B6B     		ldr	r3, [r5, #48]
 829              		.loc 1 227 34 discriminator 4 view .LVU167
 830 000e 43F82620 		str	r2, [r3, r6, lsl #2]
 228:App/WS2812B/ws2812b.cpp ****             bufferIndex++;
 831              		.loc 1 228 13 is_stmt 1 discriminator 4 view .LVU168
 832              		.loc 1 228 24 is_stmt 0 discriminator 4 view .LVU169
 833 0012 0136     		adds	r6, r6, #1
 834              	.LVL99:
 225:App/WS2812B/ws2812b.cpp ****         for (int8_t bitIndex = 23; bitIndex >= 0; bitIndex--)
 835              		.loc 1 225 9 is_stmt 1 discriminator 4 view .LVU170
 836 0014 013C     		subs	r4, r4, #1
 837              	.LVL100:
 225:App/WS2812B/ws2812b.cpp ****         for (int8_t bitIndex = 23; bitIndex >= 0; bitIndex--)
 838              		.loc 1 225 9 is_stmt 0 discriminator 4 view .LVU171
 839 0016 64B2     		sxtb	r4, r4
 840              	.LVL101:
 841              	.L29:
 225:App/WS2812B/ws2812b.cpp ****         for (int8_t bitIndex = 23; bitIndex >= 0; bitIndex--)
 842              		.loc 1 225 45 is_stmt 1 discriminator 2 view .LVU172
 843 0018 002C     		cmp	r4, #0
 844 001a 0BDB     		blt	.L34
 227:App/WS2812B/ws2812b.cpp ****             bufferIndex++;
 845              		.loc 1 227 13 view .LVU173
 227:App/WS2812B/ws2812b.cpp ****             bufferIndex++;
 846              		.loc 1 227 53 is_stmt 0 view .LVU174
 847 001c AB69     		ldr	r3, [r5, #24]
 227:App/WS2812B/ws2812b.cpp ****             bufferIndex++;
 848              		.loc 1 227 52 view .LVU175
 849 001e 53F82710 		ldr	r1, [r3, r7, lsl #2]
 850 0022 2846     		mov	r0, r5
 851 0024 FFF7FEFF 		bl	_ZN7WS2812B5toGRBEm
 852              	.LVL102:
 227:App/WS2812B/ws2812b.cpp ****             bufferIndex++;
 853              		.loc 1 227 75 view .LVU176
 854 0028 E040     		lsrs	r0, r0, r4
 227:App/WS2812B/ws2812b.cpp ****             bufferIndex++;
 855              		.loc 1 227 95 view .LVU177
ARM GAS  C:\Users\DARSTE~1\AppData\Local\Temp\ccBVkiXg.s 			page 21


 856 002a 10F0010F 		tst	r0, #1
 857 002e ECD0     		beq	.L26
 227:App/WS2812B/ws2812b.cpp ****             bufferIndex++;
 858              		.loc 1 227 95 discriminator 1 view .LVU178
 859 0030 2A69     		ldr	r2, [r5, #16]
 860 0032 EBE7     		b	.L27
 861              	.L34:
 227:App/WS2812B/ws2812b.cpp ****             bufferIndex++;
 862              		.loc 1 227 95 discriminator 1 view .LVU179
 863              	.LBE5:
 224:App/WS2812B/ws2812b.cpp ****         for (int8_t bitIndex = 23; bitIndex >= 0; bitIndex--)
 864              		.loc 1 224 5 is_stmt 1 discriminator 2 view .LVU180
 865 0034 0137     		adds	r7, r7, #1
 866              	.LVL103:
 224:App/WS2812B/ws2812b.cpp ****         for (int8_t bitIndex = 23; bitIndex >= 0; bitIndex--)
 867              		.loc 1 224 5 is_stmt 0 discriminator 2 view .LVU181
 868 0036 BFB2     		uxth	r7, r7
 869              	.LVL104:
 870              	.L25:
 224:App/WS2812B/ws2812b.cpp ****         for (int8_t bitIndex = 23; bitIndex >= 0; bitIndex--)
 871              		.loc 1 224 42 is_stmt 1 discriminator 1 view .LVU182
 224:App/WS2812B/ws2812b.cpp ****         for (int8_t bitIndex = 23; bitIndex >= 0; bitIndex--)
 872              		.loc 1 224 44 is_stmt 0 discriminator 1 view .LVU183
 873 0038 2B89     		ldrh	r3, [r5, #8]
 224:App/WS2812B/ws2812b.cpp ****         for (int8_t bitIndex = 23; bitIndex >= 0; bitIndex--)
 874              		.loc 1 224 42 discriminator 1 view .LVU184
 875 003a BB42     		cmp	r3, r7
 876 003c 06D9     		bls	.L30
 877              	.LBB6:
 225:App/WS2812B/ws2812b.cpp ****         {
 878              		.loc 1 225 21 view .LVU185
 879 003e 1724     		movs	r4, #23
 880 0040 EAE7     		b	.L29
 881              	.L31:
 225:App/WS2812B/ws2812b.cpp ****         {
 882              		.loc 1 225 21 view .LVU186
 883              	.LBE6:
 884              	.LBE7:
 229:App/WS2812B/ws2812b.cpp ****         }
 230:App/WS2812B/ws2812b.cpp ****     for (bufferIndex; bufferIndex < _ledsCount * 24 + WS2812B_RESET_CODE_PADDING; bufferIndex++)
 231:App/WS2812B/ws2812b.cpp ****         _buffer[bufferIndex] = 0;
 885              		.loc 1 231 9 is_stmt 1 discriminator 2 view .LVU187
 886 0042 2B6B     		ldr	r3, [r5, #48]
 887              		.loc 1 231 30 is_stmt 0 discriminator 2 view .LVU188
 888 0044 0022     		movs	r2, #0
 889 0046 43F82620 		str	r2, [r3, r6, lsl #2]
 230:App/WS2812B/ws2812b.cpp ****         _buffer[bufferIndex] = 0;
 890              		.loc 1 230 5 is_stmt 1 discriminator 2 view .LVU189
 891 004a 0136     		adds	r6, r6, #1
 892              	.LVL105:
 893              	.L30:
 230:App/WS2812B/ws2812b.cpp ****         _buffer[bufferIndex] = 0;
 894              		.loc 1 230 35 discriminator 1 view .LVU190
 230:App/WS2812B/ws2812b.cpp ****         _buffer[bufferIndex] = 0;
 895              		.loc 1 230 37 is_stmt 0 discriminator 1 view .LVU191
 896 004c 2B89     		ldrh	r3, [r5, #8]
 230:App/WS2812B/ws2812b.cpp ****         _buffer[bufferIndex] = 0;
ARM GAS  C:\Users\DARSTE~1\AppData\Local\Temp\ccBVkiXg.s 			page 22


 897              		.loc 1 230 48 discriminator 1 view .LVU192
 898 004e 03EB4303 		add	r3, r3, r3, lsl #1
 899 0052 DB00     		lsls	r3, r3, #3
 230:App/WS2812B/ws2812b.cpp ****         _buffer[bufferIndex] = 0;
 900              		.loc 1 230 53 discriminator 1 view .LVU193
 901 0054 2833     		adds	r3, r3, #40
 230:App/WS2812B/ws2812b.cpp ****         _buffer[bufferIndex] = 0;
 902              		.loc 1 230 35 discriminator 1 view .LVU194
 903 0056 B342     		cmp	r3, r6
 904 0058 F3D8     		bhi	.L31
 232:App/WS2812B/ws2812b.cpp **** }
 905              		.loc 1 232 1 view .LVU195
 906 005a F8BD     		pop	{r3, r4, r5, r6, r7, pc}
 907              		.loc 1 232 1 view .LVU196
 908              		.cfi_endproc
 909              	.LFE90:
 910              		.cantunwind
 911              		.fnend
 913              		.section	.text._ZN7WS2812B6renderEv,"ax",%progbits
 914              		.align	1
 915              		.global	_ZN7WS2812B6renderEv
 916              		.syntax unified
 917              		.thumb
 918              		.thumb_func
 920              	_ZN7WS2812B6renderEv:
 921              		.fnstart
 922              	.LVL106:
 923              	.LFB80:
  76:App/WS2812B/ws2812b.cpp ****     memcpy(_colorData, _targetColorData, _ledsCount * 4);
 924              		.loc 1 76 1 is_stmt 1 view -0
 925              		.cfi_startproc
 926              		@ args = 0, pretend = 0, frame = 0
 927              		@ frame_needed = 0, uses_anonymous_args = 0
  76:App/WS2812B/ws2812b.cpp ****     memcpy(_colorData, _targetColorData, _ledsCount * 4);
 928              		.loc 1 76 1 is_stmt 0 view .LVU198
 929 0000 10B5     		push	{r4, lr}
 930              		.save {r4, lr}
 931              	.LCFI8:
 932              		.cfi_def_cfa_offset 8
 933              		.cfi_offset 4, -8
 934              		.cfi_offset 14, -4
 935 0002 0446     		mov	r4, r0
  77:App/WS2812B/ws2812b.cpp ****     WS2812B::updateBuffer();
 936              		.loc 1 77 5 is_stmt 1 view .LVU199
  77:App/WS2812B/ws2812b.cpp ****     WS2812B::updateBuffer();
 937              		.loc 1 77 42 is_stmt 0 view .LVU200
 938 0004 0289     		ldrh	r2, [r0, #8]
  77:App/WS2812B/ws2812b.cpp ****     WS2812B::updateBuffer();
 939              		.loc 1 77 11 view .LVU201
 940 0006 9200     		lsls	r2, r2, #2
 941 0008 C169     		ldr	r1, [r0, #28]
 942 000a 8069     		ldr	r0, [r0, #24]
 943              	.LVL107:
  77:App/WS2812B/ws2812b.cpp ****     WS2812B::updateBuffer();
 944              		.loc 1 77 11 view .LVU202
 945 000c FFF7FEFF 		bl	memcpy
 946              	.LVL108:
ARM GAS  C:\Users\DARSTE~1\AppData\Local\Temp\ccBVkiXg.s 			page 23


  78:App/WS2812B/ws2812b.cpp **** 
 947              		.loc 1 78 5 is_stmt 1 view .LVU203
  78:App/WS2812B/ws2812b.cpp **** 
 948              		.loc 1 78 26 is_stmt 0 view .LVU204
 949 0010 2046     		mov	r0, r4
 950 0012 FFF7FEFF 		bl	_ZN7WS2812B12updateBufferEv
 951              	.LVL109:
  80:App/WS2812B/ws2812b.cpp ****         _PWMgenerator, _channel,
 952              		.loc 1 80 5 is_stmt 1 view .LVU205
  83:App/WS2812B/ws2812b.cpp ****     );
 953              		.loc 1 83 9 is_stmt 0 view .LVU206
 954 0016 2389     		ldrh	r3, [r4, #8]
  83:App/WS2812B/ws2812b.cpp ****     );
 955              		.loc 1 83 22 view .LVU207
 956 0018 94F83420 		ldrb	r2, [r4, #52]	@ zero_extendqisi2
  80:App/WS2812B/ws2812b.cpp ****         _PWMgenerator, _channel,
 957              		.loc 1 80 26 view .LVU208
 958 001c 02FB03F3 		mul	r3, r2, r3
 959 0020 9BB2     		uxth	r3, r3
 960 0022 226B     		ldr	r2, [r4, #48]
 961 0024 E168     		ldr	r1, [r4, #12]
 962 0026 6068     		ldr	r0, [r4, #4]
 963 0028 FFF7FEFF 		bl	HAL_TIM_PWM_Start_DMA
 964              	.LVL110:
  86:App/WS2812B/ws2812b.cpp ****     while (UPDATE_STATE == WS2812B_UPDATE_ONGOING);
 965              		.loc 1 86 5 is_stmt 1 view .LVU209
  86:App/WS2812B/ws2812b.cpp ****     while (UPDATE_STATE == WS2812B_UPDATE_ONGOING);
 966              		.loc 1 86 18 is_stmt 0 view .LVU210
 967 002c 0023     		movs	r3, #0
 968 002e 2370     		strb	r3, [r4]
  87:App/WS2812B/ws2812b.cpp **** }
 969              		.loc 1 87 5 is_stmt 1 view .LVU211
 970              	.L36:
  87:App/WS2812B/ws2812b.cpp **** }
 971              		.loc 1 87 25 discriminator 1 view .LVU212
  87:App/WS2812B/ws2812b.cpp **** }
 972              		.loc 1 87 12 is_stmt 0 discriminator 1 view .LVU213
 973 0030 2378     		ldrb	r3, [r4]	@ zero_extendqisi2
  87:App/WS2812B/ws2812b.cpp **** }
 974              		.loc 1 87 25 discriminator 1 view .LVU214
 975 0032 002B     		cmp	r3, #0
 976 0034 FCD0     		beq	.L36
  88:App/WS2812B/ws2812b.cpp **** 
 977              		.loc 1 88 1 view .LVU215
 978 0036 10BD     		pop	{r4, pc}
  88:App/WS2812B/ws2812b.cpp **** 
 979              		.loc 1 88 1 view .LVU216
 980              		.cfi_endproc
 981              	.LFE80:
 982              		.fnend
 984              		.global	__aeabi_fcmpgt
 985              		.global	__aeabi_fcmple
 986              		.global	__aeabi_fcmpeq
 987              		.section	.text._ZN7WS2812B10transitionEPff,"ax",%progbits
 988              		.align	1
 989              		.global	_ZN7WS2812B10transitionEPff
 990              		.syntax unified
ARM GAS  C:\Users\DARSTE~1\AppData\Local\Temp\ccBVkiXg.s 			page 24


 991              		.thumb
 992              		.thumb_func
 994              	_ZN7WS2812B10transitionEPff:
 995              		.fnstart
 996              	.LVL111:
 997              	.LFB82:
 139:App/WS2812B/ws2812b.cpp ****     if (*timeTick > duration)
 998              		.loc 1 139 1 is_stmt 1 view -0
 999              		.cfi_startproc
 1000              		@ args = 0, pretend = 0, frame = 0
 1001              		@ frame_needed = 0, uses_anonymous_args = 0
 139:App/WS2812B/ws2812b.cpp ****     if (*timeTick > duration)
 1002              		.loc 1 139 1 is_stmt 0 view .LVU218
 1003 0000 2DE9F84F 		push	{r3, r4, r5, r6, r7, r8, r9, r10, fp, lr}
 1004              		.save {r3, r4, r5, r6, r7, r8, r9, r10, fp, lr}
 1005              	.LCFI9:
 1006              		.cfi_def_cfa_offset 40
 1007              		.cfi_offset 3, -40
 1008              		.cfi_offset 4, -36
 1009              		.cfi_offset 5, -32
 1010              		.cfi_offset 6, -28
 1011              		.cfi_offset 7, -24
 1012              		.cfi_offset 8, -20
 1013              		.cfi_offset 9, -16
 1014              		.cfi_offset 10, -12
 1015              		.cfi_offset 11, -8
 1016              		.cfi_offset 14, -4
 1017 0004 0446     		mov	r4, r0
 1018 0006 8946     		mov	r9, r1
 1019 0008 1646     		mov	r6, r2
 140:App/WS2812B/ws2812b.cpp ****     {
 1020              		.loc 1 140 5 is_stmt 1 view .LVU219
 140:App/WS2812B/ws2812b.cpp ****     {
 1021              		.loc 1 140 9 is_stmt 0 view .LVU220
 1022 000a 0D68     		ldr	r5, [r1]	@ float
 140:App/WS2812B/ws2812b.cpp ****     {
 1023              		.loc 1 140 5 view .LVU221
 1024 000c 1146     		mov	r1, r2
 1025              	.LVL112:
 140:App/WS2812B/ws2812b.cpp ****     {
 1026              		.loc 1 140 5 view .LVU222
 1027 000e 2846     		mov	r0, r5
 1028              	.LVL113:
 140:App/WS2812B/ws2812b.cpp ****     {
 1029              		.loc 1 140 5 view .LVU223
 1030 0010 FFF7FEFF 		bl	__aeabi_fcmpgt
 1031              	.LVL114:
 140:App/WS2812B/ws2812b.cpp ****     {
 1032              		.loc 1 140 5 view .LVU224
 1033 0014 68B9     		cbnz	r0, .L56
 147:App/WS2812B/ws2812b.cpp ****         return WS2812B_TRANSITION_FINISHED;
 1034              		.loc 1 147 5 is_stmt 1 view .LVU225
 1035 0016 0021     		movs	r1, #0
 1036 0018 3046     		mov	r0, r6
 1037 001a FFF7FEFF 		bl	__aeabi_fcmple
 1038              	.LVL115:
 1039 001e 0028     		cmp	r0, #0
ARM GAS  C:\Users\DARSTE~1\AppData\Local\Temp\ccBVkiXg.s 			page 25


 1040 0020 40F01881 		bne	.L51
 150:App/WS2812B/ws2812b.cpp ****     {
 1041              		.loc 1 150 5 view .LVU226
 1042              	.LBB8:
 1043 0024 0021     		movs	r1, #0
 1044 0026 2846     		mov	r0, r5
 1045 0028 FFF7FEFF 		bl	__aeabi_fcmpeq
 1046              	.LVL116:
 1047 002c 78B9     		cbnz	r0, .L57
 1048              	.L42:
 1049              	.LBB9:
 1050              	.LBB10:
 166:App/WS2812B/ws2812b.cpp ****             _prevColorData[ledIterate] = _colorData[ledIterate];
 1051              		.loc 1 166 23 is_stmt 0 discriminator 1 view .LVU227
 1052 002e 0025     		movs	r5, #0
 1053 0030 F7E0     		b	.L48
 1054              	.L56:
 1055              	.LBE10:
 1056              	.LBE9:
 1057              	.LBE8:
 142:App/WS2812B/ws2812b.cpp ****         free(_prevColorData);
 1058              		.loc 1 142 9 is_stmt 1 view .LVU228
 142:App/WS2812B/ws2812b.cpp ****         free(_prevColorData);
 1059              		.loc 1 142 13 is_stmt 0 view .LVU229
 1060 0032 606A     		ldr	r0, [r4, #36]
 1061 0034 FFF7FEFF 		bl	free
 1062              	.LVL117:
 142:App/WS2812B/ws2812b.cpp ****         free(_prevColorData);
 1063              		.loc 1 142 26 is_stmt 1 view .LVU230
 142:App/WS2812B/ws2812b.cpp ****         free(_prevColorData);
 1064              		.loc 1 142 30 is_stmt 0 view .LVU231
 1065 0038 A06A     		ldr	r0, [r4, #40]
 1066 003a FFF7FEFF 		bl	free
 1067              	.LVL118:
 142:App/WS2812B/ws2812b.cpp ****         free(_prevColorData);
 1068              		.loc 1 142 45 is_stmt 1 view .LVU232
 142:App/WS2812B/ws2812b.cpp ****         free(_prevColorData);
 1069              		.loc 1 142 49 is_stmt 0 view .LVU233
 1070 003e E06A     		ldr	r0, [r4, #44]
 1071 0040 FFF7FEFF 		bl	free
 1072              	.LVL119:
 143:App/WS2812B/ws2812b.cpp ****         return WS2812B_TRANSITION_FINISHED;
 1073              		.loc 1 143 9 is_stmt 1 view .LVU234
 143:App/WS2812B/ws2812b.cpp ****         return WS2812B_TRANSITION_FINISHED;
 1074              		.loc 1 143 13 is_stmt 0 view .LVU235
 1075 0044 206A     		ldr	r0, [r4, #32]
 1076 0046 FFF7FEFF 		bl	free
 1077              	.LVL120:
 144:App/WS2812B/ws2812b.cpp ****     }
 1078              		.loc 1 144 9 is_stmt 1 view .LVU236
 144:App/WS2812B/ws2812b.cpp ****     }
 1079              		.loc 1 144 16 is_stmt 0 view .LVU237
 1080 004a 0120     		movs	r0, #1
 1081 004c 00E1     		b	.L41
 1082              	.L57:
 1083              	.LBB14:
 1084              	.LBB13:
ARM GAS  C:\Users\DARSTE~1\AppData\Local\Temp\ccBVkiXg.s 			page 26


 152:App/WS2812B/ws2812b.cpp ****         _transRed = (float *)calloc(_ledsCount, sizeof(uint32_t));
 1085              		.loc 1 152 9 is_stmt 1 view .LVU238
 152:App/WS2812B/ws2812b.cpp ****         _transRed = (float *)calloc(_ledsCount, sizeof(uint32_t));
 1086              		.loc 1 152 42 is_stmt 0 view .LVU239
 1087 004e 8249     		ldr	r1, .L58
 1088 0050 3046     		mov	r0, r6
 1089 0052 FFF7FEFF 		bl	__aeabi_fdiv
 1090              	.LVL121:
 1091 0056 0146     		mov	r1, r0
 152:App/WS2812B/ws2812b.cpp ****         _transRed = (float *)calloc(_ledsCount, sizeof(uint32_t));
 1092              		.loc 1 152 31 view .LVU240
 1093 0058 2846     		mov	r0, r5
 1094 005a FFF7FEFF 		bl	__aeabi_fadd
 1095              	.LVL122:
 152:App/WS2812B/ws2812b.cpp ****         _transRed = (float *)calloc(_ledsCount, sizeof(uint32_t));
 1096              		.loc 1 152 19 view .LVU241
 1097 005e C9F80000 		str	r0, [r9]	@ float
 153:App/WS2812B/ws2812b.cpp ****         _transGreen = (float *)calloc(_ledsCount, sizeof(uint32_t));
 1098              		.loc 1 153 9 is_stmt 1 view .LVU242
 153:App/WS2812B/ws2812b.cpp ****         _transGreen = (float *)calloc(_ledsCount, sizeof(uint32_t));
 1099              		.loc 1 153 37 is_stmt 0 view .LVU243
 1100 0062 2589     		ldrh	r5, [r4, #8]
 153:App/WS2812B/ws2812b.cpp ****         _transGreen = (float *)calloc(_ledsCount, sizeof(uint32_t));
 1101              		.loc 1 153 36 view .LVU244
 1102 0064 0421     		movs	r1, #4
 1103 0066 2846     		mov	r0, r5
 1104 0068 FFF7FEFF 		bl	calloc
 1105              	.LVL123:
 153:App/WS2812B/ws2812b.cpp ****         _transGreen = (float *)calloc(_ledsCount, sizeof(uint32_t));
 1106              		.loc 1 153 19 view .LVU245
 1107 006c 6062     		str	r0, [r4, #36]
 154:App/WS2812B/ws2812b.cpp ****         _transBlue = (float *)calloc(_ledsCount, sizeof(uint32_t));
 1108              		.loc 1 154 9 is_stmt 1 view .LVU246
 154:App/WS2812B/ws2812b.cpp ****         _transBlue = (float *)calloc(_ledsCount, sizeof(uint32_t));
 1109              		.loc 1 154 38 is_stmt 0 view .LVU247
 1110 006e 0421     		movs	r1, #4
 1111 0070 2846     		mov	r0, r5
 1112 0072 FFF7FEFF 		bl	calloc
 1113              	.LVL124:
 154:App/WS2812B/ws2812b.cpp ****         _transBlue = (float *)calloc(_ledsCount, sizeof(uint32_t));
 1114              		.loc 1 154 21 view .LVU248
 1115 0076 A062     		str	r0, [r4, #40]
 155:App/WS2812B/ws2812b.cpp ****         _prevColorData = (uint32_t *)calloc(_ledsCount, sizeof(uint32_t));
 1116              		.loc 1 155 9 is_stmt 1 view .LVU249
 155:App/WS2812B/ws2812b.cpp ****         _prevColorData = (uint32_t *)calloc(_ledsCount, sizeof(uint32_t));
 1117              		.loc 1 155 37 is_stmt 0 view .LVU250
 1118 0078 0421     		movs	r1, #4
 1119 007a 2846     		mov	r0, r5
 1120 007c FFF7FEFF 		bl	calloc
 1121              	.LVL125:
 155:App/WS2812B/ws2812b.cpp ****         _prevColorData = (uint32_t *)calloc(_ledsCount, sizeof(uint32_t));
 1122              		.loc 1 155 20 view .LVU251
 1123 0080 E062     		str	r0, [r4, #44]
 156:App/WS2812B/ws2812b.cpp ****         for (uint16_t ledIterate = 0; ledIterate < _ledsCount; ledIterate++)
 1124              		.loc 1 156 9 is_stmt 1 view .LVU252
 156:App/WS2812B/ws2812b.cpp ****         for (uint16_t ledIterate = 0; ledIterate < _ledsCount; ledIterate++)
 1125              		.loc 1 156 44 is_stmt 0 view .LVU253
ARM GAS  C:\Users\DARSTE~1\AppData\Local\Temp\ccBVkiXg.s 			page 27


 1126 0082 0421     		movs	r1, #4
 1127 0084 2846     		mov	r0, r5
 1128 0086 FFF7FEFF 		bl	calloc
 1129              	.LVL126:
 156:App/WS2812B/ws2812b.cpp ****         for (uint16_t ledIterate = 0; ledIterate < _ledsCount; ledIterate++)
 1130              		.loc 1 156 24 view .LVU254
 1131 008a 2062     		str	r0, [r4, #32]
 157:App/WS2812B/ws2812b.cpp ****         {
 1132              		.loc 1 157 9 is_stmt 1 view .LVU255
 1133              	.LVL127:
 1134              	.LBB11:
 157:App/WS2812B/ws2812b.cpp ****         {
 1135              		.loc 1 157 23 is_stmt 0 view .LVU256
 1136 008c 0025     		movs	r5, #0
 157:App/WS2812B/ws2812b.cpp ****         {
 1137              		.loc 1 157 9 view .LVU257
 1138 008e 64E0     		b	.L44
 1139              	.LVL128:
 1140              	.L45:
 159:App/WS2812B/ws2812b.cpp ****             _transGreen[ledIterate] = (float)WS2812B::extractGreen(_targetColorData[ledIterate]) - 
 1141              		.loc 1 159 13 is_stmt 1 discriminator 3 view .LVU258
 159:App/WS2812B/ws2812b.cpp ****             _transGreen[ledIterate] = (float)WS2812B::extractGreen(_targetColorData[ledIterate]) - 
 1142              		.loc 1 159 64 is_stmt 0 discriminator 3 view .LVU259
 1143 0090 E369     		ldr	r3, [r4, #28]
 159:App/WS2812B/ws2812b.cpp ****             _transGreen[ledIterate] = (float)WS2812B::extractGreen(_targetColorData[ledIterate]) - 
 1144              		.loc 1 159 63 discriminator 3 view .LVU260
 1145 0092 53F82510 		ldr	r1, [r3, r5, lsl #2]
 1146 0096 2046     		mov	r0, r4
 1147 0098 FFF7FEFF 		bl	_ZN7WS2812B10extractRedEm
 1148              	.LVL129:
 159:App/WS2812B/ws2812b.cpp ****             _transGreen[ledIterate] = (float)WS2812B::extractGreen(_targetColorData[ledIterate]) - 
 1149              		.loc 1 159 37 discriminator 3 view .LVU261
 1150 009c FFF7FEFF 		bl	__aeabi_ui2f
 1151              	.LVL130:
 1152 00a0 0746     		mov	r7, r0
 159:App/WS2812B/ws2812b.cpp ****             _transGreen[ledIterate] = (float)WS2812B::extractGreen(_targetColorData[ledIterate]) - 
 1153              		.loc 1 159 123 discriminator 3 view .LVU262
 1154 00a2 A369     		ldr	r3, [r4, #24]
 159:App/WS2812B/ws2812b.cpp ****             _transGreen[ledIterate] = (float)WS2812B::extractGreen(_targetColorData[ledIterate]) - 
 1155              		.loc 1 159 122 discriminator 3 view .LVU263
 1156 00a4 53F82510 		ldr	r1, [r3, r5, lsl #2]
 1157 00a8 2046     		mov	r0, r4
 1158 00aa FFF7FEFF 		bl	_ZN7WS2812B10extractRedEm
 1159              	.LVL131:
 159:App/WS2812B/ws2812b.cpp ****             _transGreen[ledIterate] = (float)WS2812B::extractGreen(_targetColorData[ledIterate]) - 
 1160              		.loc 1 159 96 discriminator 3 view .LVU264
 1161 00ae FFF7FEFF 		bl	__aeabi_ui2f
 1162              	.LVL132:
 1163 00b2 0146     		mov	r1, r0
 159:App/WS2812B/ws2812b.cpp ****             _transGreen[ledIterate] = (float)WS2812B::extractGreen(_targetColorData[ledIterate]) - 
 1164              		.loc 1 159 13 discriminator 3 view .LVU265
 1165 00b4 D4F82480 		ldr	r8, [r4, #36]
 159:App/WS2812B/ws2812b.cpp ****             _transGreen[ledIterate] = (float)WS2812B::extractGreen(_targetColorData[ledIterate]) - 
 1166              		.loc 1 159 94 discriminator 3 view .LVU266
 1167 00b8 3846     		mov	r0, r7
 1168 00ba FFF7FEFF 		bl	__aeabi_fsub
 1169              	.LVL133:
ARM GAS  C:\Users\DARSTE~1\AppData\Local\Temp\ccBVkiXg.s 			page 28


 159:App/WS2812B/ws2812b.cpp ****             _transGreen[ledIterate] = (float)WS2812B::extractGreen(_targetColorData[ledIterate]) - 
 1170              		.loc 1 159 35 discriminator 3 view .LVU267
 1171 00be 48F82500 		str	r0, [r8, r5, lsl #2]	@ float
 160:App/WS2812B/ws2812b.cpp ****             _transBlue[ledIterate] = (float)WS2812B::extractBlue(_targetColorData[ledIterate]) - (f
 1172              		.loc 1 160 13 is_stmt 1 discriminator 3 view .LVU268
 160:App/WS2812B/ws2812b.cpp ****             _transBlue[ledIterate] = (float)WS2812B::extractBlue(_targetColorData[ledIterate]) - (f
 1173              		.loc 1 160 68 is_stmt 0 discriminator 3 view .LVU269
 1174 00c2 E369     		ldr	r3, [r4, #28]
 160:App/WS2812B/ws2812b.cpp ****             _transBlue[ledIterate] = (float)WS2812B::extractBlue(_targetColorData[ledIterate]) - (f
 1175              		.loc 1 160 67 discriminator 3 view .LVU270
 1176 00c4 53F82510 		ldr	r1, [r3, r5, lsl #2]
 1177 00c8 2046     		mov	r0, r4
 1178 00ca FFF7FEFF 		bl	_ZN7WS2812B12extractGreenEm
 1179              	.LVL134:
 160:App/WS2812B/ws2812b.cpp ****             _transBlue[ledIterate] = (float)WS2812B::extractBlue(_targetColorData[ledIterate]) - (f
 1180              		.loc 1 160 39 discriminator 3 view .LVU271
 1181 00ce FFF7FEFF 		bl	__aeabi_ui2f
 1182              	.LVL135:
 1183 00d2 0746     		mov	r7, r0
 160:App/WS2812B/ws2812b.cpp ****             _transBlue[ledIterate] = (float)WS2812B::extractBlue(_targetColorData[ledIterate]) - (f
 1184              		.loc 1 160 129 discriminator 3 view .LVU272
 1185 00d4 A369     		ldr	r3, [r4, #24]
 160:App/WS2812B/ws2812b.cpp ****             _transBlue[ledIterate] = (float)WS2812B::extractBlue(_targetColorData[ledIterate]) - (f
 1186              		.loc 1 160 128 discriminator 3 view .LVU273
 1187 00d6 53F82510 		ldr	r1, [r3, r5, lsl #2]
 1188 00da 2046     		mov	r0, r4
 1189 00dc FFF7FEFF 		bl	_ZN7WS2812B12extractGreenEm
 1190              	.LVL136:
 160:App/WS2812B/ws2812b.cpp ****             _transBlue[ledIterate] = (float)WS2812B::extractBlue(_targetColorData[ledIterate]) - (f
 1191              		.loc 1 160 100 discriminator 3 view .LVU274
 1192 00e0 FFF7FEFF 		bl	__aeabi_ui2f
 1193              	.LVL137:
 1194 00e4 0146     		mov	r1, r0
 160:App/WS2812B/ws2812b.cpp ****             _transBlue[ledIterate] = (float)WS2812B::extractBlue(_targetColorData[ledIterate]) - (f
 1195              		.loc 1 160 13 discriminator 3 view .LVU275
 1196 00e6 D4F82880 		ldr	r8, [r4, #40]
 160:App/WS2812B/ws2812b.cpp ****             _transBlue[ledIterate] = (float)WS2812B::extractBlue(_targetColorData[ledIterate]) - (f
 1197              		.loc 1 160 98 discriminator 3 view .LVU276
 1198 00ea 3846     		mov	r0, r7
 1199 00ec FFF7FEFF 		bl	__aeabi_fsub
 1200              	.LVL138:
 160:App/WS2812B/ws2812b.cpp ****             _transBlue[ledIterate] = (float)WS2812B::extractBlue(_targetColorData[ledIterate]) - (f
 1201              		.loc 1 160 37 discriminator 3 view .LVU277
 1202 00f0 48F82500 		str	r0, [r8, r5, lsl #2]	@ float
 161:App/WS2812B/ws2812b.cpp ****             _transRed[ledIterate] = _transRed[ledIterate] / duration;
 1203              		.loc 1 161 13 is_stmt 1 discriminator 3 view .LVU278
 161:App/WS2812B/ws2812b.cpp ****             _transRed[ledIterate] = _transRed[ledIterate] / duration;
 1204              		.loc 1 161 66 is_stmt 0 discriminator 3 view .LVU279
 1205 00f4 E369     		ldr	r3, [r4, #28]
 161:App/WS2812B/ws2812b.cpp ****             _transRed[ledIterate] = _transRed[ledIterate] / duration;
 1206              		.loc 1 161 65 discriminator 3 view .LVU280
 1207 00f6 53F82510 		ldr	r1, [r3, r5, lsl #2]
 1208 00fa 2046     		mov	r0, r4
 1209 00fc FFF7FEFF 		bl	_ZN7WS2812B11extractBlueEm
 1210              	.LVL139:
 161:App/WS2812B/ws2812b.cpp ****             _transRed[ledIterate] = _transRed[ledIterate] / duration;
 1211              		.loc 1 161 38 discriminator 3 view .LVU281
ARM GAS  C:\Users\DARSTE~1\AppData\Local\Temp\ccBVkiXg.s 			page 29


 1212 0100 FFF7FEFF 		bl	__aeabi_ui2f
 1213              	.LVL140:
 1214 0104 0746     		mov	r7, r0
 161:App/WS2812B/ws2812b.cpp ****             _transRed[ledIterate] = _transRed[ledIterate] / duration;
 1215              		.loc 1 161 126 discriminator 3 view .LVU282
 1216 0106 A369     		ldr	r3, [r4, #24]
 161:App/WS2812B/ws2812b.cpp ****             _transRed[ledIterate] = _transRed[ledIterate] / duration;
 1217              		.loc 1 161 125 discriminator 3 view .LVU283
 1218 0108 53F82510 		ldr	r1, [r3, r5, lsl #2]
 1219 010c 2046     		mov	r0, r4
 1220 010e FFF7FEFF 		bl	_ZN7WS2812B11extractBlueEm
 1221              	.LVL141:
 161:App/WS2812B/ws2812b.cpp ****             _transRed[ledIterate] = _transRed[ledIterate] / duration;
 1222              		.loc 1 161 98 discriminator 3 view .LVU284
 1223 0112 FFF7FEFF 		bl	__aeabi_ui2f
 1224              	.LVL142:
 1225 0116 0146     		mov	r1, r0
 161:App/WS2812B/ws2812b.cpp ****             _transRed[ledIterate] = _transRed[ledIterate] / duration;
 1226              		.loc 1 161 13 discriminator 3 view .LVU285
 1227 0118 D4F82C80 		ldr	r8, [r4, #44]
 161:App/WS2812B/ws2812b.cpp ****             _transRed[ledIterate] = _transRed[ledIterate] / duration;
 1228              		.loc 1 161 96 discriminator 3 view .LVU286
 1229 011c 3846     		mov	r0, r7
 1230 011e FFF7FEFF 		bl	__aeabi_fsub
 1231              	.LVL143:
 161:App/WS2812B/ws2812b.cpp ****             _transRed[ledIterate] = _transRed[ledIterate] / duration;
 1232              		.loc 1 161 36 discriminator 3 view .LVU287
 1233 0122 48F82500 		str	r0, [r8, r5, lsl #2]	@ float
 162:App/WS2812B/ws2812b.cpp ****             _transGreen[ledIterate] = _transGreen[ledIterate] / duration;
 1234              		.loc 1 162 13 is_stmt 1 discriminator 3 view .LVU288
 162:App/WS2812B/ws2812b.cpp ****             _transGreen[ledIterate] = _transGreen[ledIterate] / duration;
 1235              		.loc 1 162 37 is_stmt 0 discriminator 3 view .LVU289
 1236 0126 676A     		ldr	r7, [r4, #36]
 162:App/WS2812B/ws2812b.cpp ****             _transGreen[ledIterate] = _transGreen[ledIterate] / duration;
 1237              		.loc 1 162 59 discriminator 3 view .LVU290
 1238 0128 3146     		mov	r1, r6
 1239 012a 57F82500 		ldr	r0, [r7, r5, lsl #2]	@ float
 1240 012e FFF7FEFF 		bl	__aeabi_fdiv
 1241              	.LVL144:
 162:App/WS2812B/ws2812b.cpp ****             _transGreen[ledIterate] = _transGreen[ledIterate] / duration;
 1242              		.loc 1 162 35 discriminator 3 view .LVU291
 1243 0132 47F82500 		str	r0, [r7, r5, lsl #2]	@ float
 163:App/WS2812B/ws2812b.cpp ****             _transBlue[ledIterate] = _transBlue[ledIterate] / duration;
 1244              		.loc 1 163 13 is_stmt 1 discriminator 3 view .LVU292
 163:App/WS2812B/ws2812b.cpp ****             _transBlue[ledIterate] = _transBlue[ledIterate] / duration;
 1245              		.loc 1 163 39 is_stmt 0 discriminator 3 view .LVU293
 1246 0136 A76A     		ldr	r7, [r4, #40]
 163:App/WS2812B/ws2812b.cpp ****             _transBlue[ledIterate] = _transBlue[ledIterate] / duration;
 1247              		.loc 1 163 63 discriminator 3 view .LVU294
 1248 0138 3146     		mov	r1, r6
 1249 013a 57F82500 		ldr	r0, [r7, r5, lsl #2]	@ float
 1250 013e FFF7FEFF 		bl	__aeabi_fdiv
 1251              	.LVL145:
 163:App/WS2812B/ws2812b.cpp ****             _transBlue[ledIterate] = _transBlue[ledIterate] / duration;
 1252              		.loc 1 163 37 discriminator 3 view .LVU295
 1253 0142 47F82500 		str	r0, [r7, r5, lsl #2]	@ float
 164:App/WS2812B/ws2812b.cpp ****         }
ARM GAS  C:\Users\DARSTE~1\AppData\Local\Temp\ccBVkiXg.s 			page 30


 1254              		.loc 1 164 13 is_stmt 1 discriminator 3 view .LVU296
 164:App/WS2812B/ws2812b.cpp ****         }
 1255              		.loc 1 164 38 is_stmt 0 discriminator 3 view .LVU297
 1256 0146 E76A     		ldr	r7, [r4, #44]
 164:App/WS2812B/ws2812b.cpp ****         }
 1257              		.loc 1 164 61 discriminator 3 view .LVU298
 1258 0148 3146     		mov	r1, r6
 1259 014a 57F82500 		ldr	r0, [r7, r5, lsl #2]	@ float
 1260 014e FFF7FEFF 		bl	__aeabi_fdiv
 1261              	.LVL146:
 164:App/WS2812B/ws2812b.cpp ****         }
 1262              		.loc 1 164 36 discriminator 3 view .LVU299
 1263 0152 47F82500 		str	r0, [r7, r5, lsl #2]	@ float
 157:App/WS2812B/ws2812b.cpp ****         {
 1264              		.loc 1 157 9 is_stmt 1 discriminator 3 view .LVU300
 1265 0156 0135     		adds	r5, r5, #1
 1266              	.LVL147:
 157:App/WS2812B/ws2812b.cpp ****         {
 1267              		.loc 1 157 9 is_stmt 0 discriminator 3 view .LVU301
 1268 0158 ADB2     		uxth	r5, r5
 1269              	.LVL148:
 1270              	.L44:
 157:App/WS2812B/ws2812b.cpp ****         {
 1271              		.loc 1 157 50 is_stmt 1 discriminator 1 view .LVU302
 157:App/WS2812B/ws2812b.cpp ****         {
 1272              		.loc 1 157 52 is_stmt 0 discriminator 1 view .LVU303
 1273 015a 2389     		ldrh	r3, [r4, #8]
 157:App/WS2812B/ws2812b.cpp ****         {
 1274              		.loc 1 157 50 discriminator 1 view .LVU304
 1275 015c AB42     		cmp	r3, r5
 1276 015e 97D8     		bhi	.L45
 1277              	.LBE11:
 1278              	.LBB12:
 166:App/WS2812B/ws2812b.cpp ****             _prevColorData[ledIterate] = _colorData[ledIterate];
 1279              		.loc 1 166 23 view .LVU305
 1280 0160 0023     		movs	r3, #0
 1281 0162 07E0     		b	.L46
 1282              	.LVL149:
 1283              	.L47:
 167:App/WS2812B/ws2812b.cpp ****     }
 1284              		.loc 1 167 13 is_stmt 1 discriminator 3 view .LVU306
 167:App/WS2812B/ws2812b.cpp ****     }
 1285              		.loc 1 167 42 is_stmt 0 discriminator 3 view .LVU307
 1286 0164 A169     		ldr	r1, [r4, #24]
 167:App/WS2812B/ws2812b.cpp ****     }
 1287              		.loc 1 167 13 discriminator 3 view .LVU308
 1288 0166 226A     		ldr	r2, [r4, #32]
 167:App/WS2812B/ws2812b.cpp ****     }
 1289              		.loc 1 167 63 discriminator 3 view .LVU309
 1290 0168 51F82310 		ldr	r1, [r1, r3, lsl #2]
 167:App/WS2812B/ws2812b.cpp ****     }
 1291              		.loc 1 167 40 discriminator 3 view .LVU310
 1292 016c 42F82310 		str	r1, [r2, r3, lsl #2]
 166:App/WS2812B/ws2812b.cpp ****             _prevColorData[ledIterate] = _colorData[ledIterate];
 1293              		.loc 1 166 9 is_stmt 1 discriminator 3 view .LVU311
 1294 0170 0133     		adds	r3, r3, #1
 1295              	.LVL150:
ARM GAS  C:\Users\DARSTE~1\AppData\Local\Temp\ccBVkiXg.s 			page 31


 166:App/WS2812B/ws2812b.cpp ****             _prevColorData[ledIterate] = _colorData[ledIterate];
 1296              		.loc 1 166 9 is_stmt 0 discriminator 3 view .LVU312
 1297 0172 9BB2     		uxth	r3, r3
 1298              	.LVL151:
 1299              	.L46:
 166:App/WS2812B/ws2812b.cpp ****             _prevColorData[ledIterate] = _colorData[ledIterate];
 1300              		.loc 1 166 50 is_stmt 1 discriminator 1 view .LVU313
 166:App/WS2812B/ws2812b.cpp ****             _prevColorData[ledIterate] = _colorData[ledIterate];
 1301              		.loc 1 166 52 is_stmt 0 discriminator 1 view .LVU314
 1302 0174 2289     		ldrh	r2, [r4, #8]
 166:App/WS2812B/ws2812b.cpp ****             _prevColorData[ledIterate] = _colorData[ledIterate];
 1303              		.loc 1 166 50 discriminator 1 view .LVU315
 1304 0176 9A42     		cmp	r2, r3
 1305 0178 F4D8     		bhi	.L47
 1306 017a 58E7     		b	.L42
 1307              	.LVL152:
 1308              	.L49:
 166:App/WS2812B/ws2812b.cpp ****             _prevColorData[ledIterate] = _colorData[ledIterate];
 1309              		.loc 1 166 50 discriminator 1 view .LVU316
 1310              	.LBE12:
 1311              	.LBE13:
 1312              	.LBE14:
 1313              	.LBB15:
 171:App/WS2812B/ws2812b.cpp ****             WS2812B::extractRed(_prevColorData[ledIterate]) + *timeTick * _transRed[ledIterate],
 1314              		.loc 1 171 9 is_stmt 1 discriminator 3 view .LVU317
 172:App/WS2812B/ws2812b.cpp ****             WS2812B::extractGreen(_prevColorData[ledIterate]) + *timeTick * _transGreen[ledIterate]
 1315              		.loc 1 172 33 is_stmt 0 discriminator 3 view .LVU318
 1316 017c 236A     		ldr	r3, [r4, #32]
 172:App/WS2812B/ws2812b.cpp ****             WS2812B::extractGreen(_prevColorData[ledIterate]) + *timeTick * _transGreen[ledIterate]
 1317              		.loc 1 172 32 discriminator 3 view .LVU319
 1318 017e 53F825A0 		ldr	r10, [r3, r5, lsl #2]
 1319 0182 5146     		mov	r1, r10
 1320 0184 2046     		mov	r0, r4
 1321 0186 FFF7FEFF 		bl	_ZN7WS2812B10extractRedEm
 1322              	.LVL153:
 1323 018a 8046     		mov	r8, r0
 172:App/WS2812B/ws2812b.cpp ****             WS2812B::extractGreen(_prevColorData[ledIterate]) + *timeTick * _transGreen[ledIterate]
 1324              		.loc 1 172 63 discriminator 3 view .LVU320
 1325 018c D9F80070 		ldr	r7, [r9]	@ float
 172:App/WS2812B/ws2812b.cpp ****             WS2812B::extractGreen(_prevColorData[ledIterate]) + *timeTick * _transGreen[ledIterate]
 1326              		.loc 1 172 75 discriminator 3 view .LVU321
 1327 0190 636A     		ldr	r3, [r4, #36]
 172:App/WS2812B/ws2812b.cpp ****             WS2812B::extractGreen(_prevColorData[ledIterate]) + *timeTick * _transGreen[ledIterate]
 1328              		.loc 1 172 73 discriminator 3 view .LVU322
 1329 0192 53F82510 		ldr	r1, [r3, r5, lsl #2]	@ float
 1330 0196 3846     		mov	r0, r7
 1331 0198 FFF7FEFF 		bl	__aeabi_fmul
 1332              	.LVL154:
 1333 019c 0646     		mov	r6, r0
 172:App/WS2812B/ws2812b.cpp ****             WS2812B::extractGreen(_prevColorData[ledIterate]) + *timeTick * _transGreen[ledIterate]
 1334              		.loc 1 172 61 discriminator 3 view .LVU323
 1335 019e 4046     		mov	r0, r8
 1336 01a0 FFF7FEFF 		bl	__aeabi_i2f
 1337              	.LVL155:
 1338 01a4 3146     		mov	r1, r6
 1339 01a6 FFF7FEFF 		bl	__aeabi_fadd
 1340              	.LVL156:
ARM GAS  C:\Users\DARSTE~1\AppData\Local\Temp\ccBVkiXg.s 			page 32


 1341 01aa 8046     		mov	r8, r0
 173:App/WS2812B/ws2812b.cpp ****             WS2812B::extractBlue(_prevColorData[ledIterate]) + *timeTick * _transBlue[ledIterate]
 1342              		.loc 1 173 34 discriminator 3 view .LVU324
 1343 01ac 5146     		mov	r1, r10
 1344 01ae 2046     		mov	r0, r4
 1345 01b0 FFF7FEFF 		bl	_ZN7WS2812B12extractGreenEm
 1346              	.LVL157:
 1347 01b4 8346     		mov	fp, r0
 173:App/WS2812B/ws2812b.cpp ****             WS2812B::extractBlue(_prevColorData[ledIterate]) + *timeTick * _transBlue[ledIterate]
 1348              		.loc 1 173 77 discriminator 3 view .LVU325
 1349 01b6 A36A     		ldr	r3, [r4, #40]
 173:App/WS2812B/ws2812b.cpp ****             WS2812B::extractBlue(_prevColorData[ledIterate]) + *timeTick * _transBlue[ledIterate]
 1350              		.loc 1 173 75 discriminator 3 view .LVU326
 1351 01b8 53F82510 		ldr	r1, [r3, r5, lsl #2]	@ float
 1352 01bc 3846     		mov	r0, r7
 1353 01be FFF7FEFF 		bl	__aeabi_fmul
 1354              	.LVL158:
 1355 01c2 0646     		mov	r6, r0
 173:App/WS2812B/ws2812b.cpp ****             WS2812B::extractBlue(_prevColorData[ledIterate]) + *timeTick * _transBlue[ledIterate]
 1356              		.loc 1 173 63 discriminator 3 view .LVU327
 1357 01c4 5846     		mov	r0, fp
 1358 01c6 FFF7FEFF 		bl	__aeabi_i2f
 1359              	.LVL159:
 1360 01ca 3146     		mov	r1, r6
 1361 01cc FFF7FEFF 		bl	__aeabi_fadd
 1362              	.LVL160:
 1363 01d0 0646     		mov	r6, r0
 174:App/WS2812B/ws2812b.cpp ****         );
 1364              		.loc 1 174 33 discriminator 3 view .LVU328
 1365 01d2 5146     		mov	r1, r10
 1366 01d4 2046     		mov	r0, r4
 1367 01d6 FFF7FEFF 		bl	_ZN7WS2812B11extractBlueEm
 1368              	.LVL161:
 1369 01da 8246     		mov	r10, r0
 174:App/WS2812B/ws2812b.cpp ****         );
 1370              		.loc 1 174 76 discriminator 3 view .LVU329
 1371 01dc E36A     		ldr	r3, [r4, #44]
 174:App/WS2812B/ws2812b.cpp ****         );
 1372              		.loc 1 174 74 discriminator 3 view .LVU330
 1373 01de 53F82510 		ldr	r1, [r3, r5, lsl #2]	@ float
 1374 01e2 3846     		mov	r0, r7
 1375 01e4 FFF7FEFF 		bl	__aeabi_fmul
 1376              	.LVL162:
 1377 01e8 0746     		mov	r7, r0
 174:App/WS2812B/ws2812b.cpp ****         );
 1378              		.loc 1 174 62 discriminator 3 view .LVU331
 1379 01ea 5046     		mov	r0, r10
 1380 01ec FFF7FEFF 		bl	__aeabi_i2f
 1381              	.LVL163:
 1382 01f0 3946     		mov	r1, r7
 1383 01f2 FFF7FEFF 		bl	__aeabi_fadd
 1384              	.LVL164:
 171:App/WS2812B/ws2812b.cpp ****             WS2812B::extractRed(_prevColorData[ledIterate]) + *timeTick * _transRed[ledIterate],
 1385              		.loc 1 171 9 discriminator 3 view .LVU332
 1386 01f6 D4F818A0 		ldr	r10, [r4, #24]
 171:App/WS2812B/ws2812b.cpp ****             WS2812B::extractRed(_prevColorData[ledIterate]) + *timeTick * _transRed[ledIterate],
 1387              		.loc 1 171 53 discriminator 3 view .LVU333
ARM GAS  C:\Users\DARSTE~1\AppData\Local\Temp\ccBVkiXg.s 			page 33


 1388 01fa FFF7FEFF 		bl	__aeabi_f2uiz
 1389              	.LVL165:
 1390 01fe C7B2     		uxtb	r7, r0
 1391 0200 3046     		mov	r0, r6
 1392 0202 FFF7FEFF 		bl	__aeabi_f2uiz
 1393              	.LVL166:
 1394 0206 C6B2     		uxtb	r6, r0
 1395 0208 4046     		mov	r0, r8
 1396 020a FFF7FEFF 		bl	__aeabi_f2uiz
 1397              	.LVL167:
 1398 020e 3B46     		mov	r3, r7
 1399 0210 3246     		mov	r2, r6
 1400 0212 C1B2     		uxtb	r1, r0
 1401 0214 2046     		mov	r0, r4
 1402 0216 FFF7FEFF 		bl	_ZN7WS2812B10combineRGBEhhh
 1403              	.LVL168:
 171:App/WS2812B/ws2812b.cpp ****             WS2812B::extractRed(_prevColorData[ledIterate]) + *timeTick * _transRed[ledIterate],
 1404              		.loc 1 171 32 discriminator 3 view .LVU334
 1405 021a 4AF82500 		str	r0, [r10, r5, lsl #2]
 170:App/WS2812B/ws2812b.cpp ****         _colorData[ledIterate] = WS2812B::combineRGB(
 1406              		.loc 1 170 5 is_stmt 1 discriminator 3 view .LVU335
 1407 021e 0135     		adds	r5, r5, #1
 1408              	.LVL169:
 170:App/WS2812B/ws2812b.cpp ****         _colorData[ledIterate] = WS2812B::combineRGB(
 1409              		.loc 1 170 5 is_stmt 0 discriminator 3 view .LVU336
 1410 0220 ADB2     		uxth	r5, r5
 1411              	.LVL170:
 1412              	.L48:
 170:App/WS2812B/ws2812b.cpp ****         _colorData[ledIterate] = WS2812B::combineRGB(
 1413              		.loc 1 170 46 is_stmt 1 discriminator 1 view .LVU337
 170:App/WS2812B/ws2812b.cpp ****         _colorData[ledIterate] = WS2812B::combineRGB(
 1414              		.loc 1 170 48 is_stmt 0 discriminator 1 view .LVU338
 1415 0222 2389     		ldrh	r3, [r4, #8]
 170:App/WS2812B/ws2812b.cpp ****         _colorData[ledIterate] = WS2812B::combineRGB(
 1416              		.loc 1 170 46 discriminator 1 view .LVU339
 1417 0224 AB42     		cmp	r3, r5
 1418 0226 A9D8     		bhi	.L49
 1419              	.LBE15:
 177:App/WS2812B/ws2812b.cpp **** 
 1420              		.loc 1 177 5 is_stmt 1 view .LVU340
 177:App/WS2812B/ws2812b.cpp **** 
 1421              		.loc 1 177 26 is_stmt 0 view .LVU341
 1422 0228 2046     		mov	r0, r4
 1423 022a FFF7FEFF 		bl	_ZN7WS2812B12updateBufferEv
 1424              	.LVL171:
 179:App/WS2812B/ws2812b.cpp ****         _PWMgenerator, _channel,
 1425              		.loc 1 179 5 is_stmt 1 view .LVU342
 182:App/WS2812B/ws2812b.cpp ****     );
 1426              		.loc 1 182 9 is_stmt 0 view .LVU343
 1427 022e 2389     		ldrh	r3, [r4, #8]
 182:App/WS2812B/ws2812b.cpp ****     );
 1428              		.loc 1 182 22 view .LVU344
 1429 0230 94F83420 		ldrb	r2, [r4, #52]	@ zero_extendqisi2
 179:App/WS2812B/ws2812b.cpp ****         _PWMgenerator, _channel,
 1430              		.loc 1 179 26 view .LVU345
 1431 0234 02FB03F3 		mul	r3, r2, r3
 1432 0238 9BB2     		uxth	r3, r3
ARM GAS  C:\Users\DARSTE~1\AppData\Local\Temp\ccBVkiXg.s 			page 34


 1433 023a 226B     		ldr	r2, [r4, #48]
 1434 023c E168     		ldr	r1, [r4, #12]
 1435 023e 6068     		ldr	r0, [r4, #4]
 1436 0240 FFF7FEFF 		bl	HAL_TIM_PWM_Start_DMA
 1437              	.LVL172:
 185:App/WS2812B/ws2812b.cpp ****     while (UPDATE_STATE == WS2812B_UPDATE_ONGOING);
 1438              		.loc 1 185 5 is_stmt 1 view .LVU346
 185:App/WS2812B/ws2812b.cpp ****     while (UPDATE_STATE == WS2812B_UPDATE_ONGOING);
 1439              		.loc 1 185 18 is_stmt 0 view .LVU347
 1440 0244 0023     		movs	r3, #0
 1441 0246 2370     		strb	r3, [r4]
 186:App/WS2812B/ws2812b.cpp **** 
 1442              		.loc 1 186 5 is_stmt 1 view .LVU348
 1443              	.L50:
 186:App/WS2812B/ws2812b.cpp **** 
 1444              		.loc 1 186 25 discriminator 1 view .LVU349
 186:App/WS2812B/ws2812b.cpp **** 
 1445              		.loc 1 186 12 is_stmt 0 discriminator 1 view .LVU350
 1446 0248 2378     		ldrb	r3, [r4]	@ zero_extendqisi2
 186:App/WS2812B/ws2812b.cpp **** 
 1447              		.loc 1 186 25 discriminator 1 view .LVU351
 1448 024a 002B     		cmp	r3, #0
 1449 024c FCD0     		beq	.L50
 188:App/WS2812B/ws2812b.cpp **** }
 1450              		.loc 1 188 27 view .LVU352
 1451 024e 0020     		movs	r0, #0
 1452              	.LVL173:
 1453              	.L41:
 189:App/WS2812B/ws2812b.cpp **** 
 1454              		.loc 1 189 1 view .LVU353
 1455 0250 BDE8F88F 		pop	{r3, r4, r5, r6, r7, r8, r9, r10, fp, pc}
 1456              	.LVL174:
 1457              	.L51:
 148:App/WS2812B/ws2812b.cpp **** 
 1458              		.loc 1 148 16 view .LVU354
 1459 0254 0120     		movs	r0, #1
 1460 0256 FBE7     		b	.L41
 1461              	.L59:
 1462              		.align	2
 1463              	.L58:
 1464 0258 00007A44 		.word	1148846080
 1465              		.cfi_endproc
 1466              	.LFE82:
 1467              		.fnend
 1469              		.section	.text._ZN7WS2812B11clearBufferEv,"ax",%progbits
 1470              		.align	1
 1471              		.global	_ZN7WS2812B11clearBufferEv
 1472              		.syntax unified
 1473              		.thumb
 1474              		.thumb_func
 1476              	_ZN7WS2812B11clearBufferEv:
 1477              		.fnstart
 1478              	.LVL175:
 1479              	.LFB91:
 233:App/WS2812B/ws2812b.cpp **** 
 234:App/WS2812B/ws2812b.cpp **** void WS2812B::clearBuffer()
 235:App/WS2812B/ws2812b.cpp **** {
ARM GAS  C:\Users\DARSTE~1\AppData\Local\Temp\ccBVkiXg.s 			page 35


 1480              		.loc 1 235 1 is_stmt 1 view -0
 1481              		.cfi_startproc
 1482              		@ args = 0, pretend = 0, frame = 0
 1483              		@ frame_needed = 0, uses_anonymous_args = 0
 1484              		@ link register save eliminated.
 236:App/WS2812B/ws2812b.cpp ****     for (uint32_t bufferIndex = 0;
 1485              		.loc 1 236 5 view .LVU356
 1486              	.LBB16:
 1487              		.loc 1 236 19 is_stmt 0 view .LVU357
 1488 0000 0022     		movs	r2, #0
 1489              		.loc 1 236 5 view .LVU358
 1490 0002 04E0     		b	.L61
 1491              	.LVL176:
 1492              	.L62:
 237:App/WS2812B/ws2812b.cpp ****         bufferIndex < _ledsCount * 24 + WS2812B_RESET_CODE_PADDING;
 238:App/WS2812B/ws2812b.cpp ****         bufferIndex++)
 239:App/WS2812B/ws2812b.cpp ****     { _buffer[bufferIndex] = 0; }
 1493              		.loc 1 239 7 is_stmt 1 view .LVU359
 1494 0004 036B     		ldr	r3, [r0, #48]
 1495              		.loc 1 239 28 is_stmt 0 view .LVU360
 1496 0006 0021     		movs	r1, #0
 1497 0008 43F82210 		str	r1, [r3, r2, lsl #2]
 236:App/WS2812B/ws2812b.cpp ****     for (uint32_t bufferIndex = 0;
 1498              		.loc 1 236 5 is_stmt 1 view .LVU361
 1499 000c 0132     		adds	r2, r2, #1
 1500              	.LVL177:
 1501              	.L61:
 237:App/WS2812B/ws2812b.cpp ****         bufferIndex < _ledsCount * 24 + WS2812B_RESET_CODE_PADDING;
 1502              		.loc 1 237 21 view .LVU362
 237:App/WS2812B/ws2812b.cpp ****         bufferIndex < _ledsCount * 24 + WS2812B_RESET_CODE_PADDING;
 1503              		.loc 1 237 23 is_stmt 0 view .LVU363
 1504 000e 0389     		ldrh	r3, [r0, #8]
 237:App/WS2812B/ws2812b.cpp ****         bufferIndex < _ledsCount * 24 + WS2812B_RESET_CODE_PADDING;
 1505              		.loc 1 237 34 view .LVU364
 1506 0010 03EB4303 		add	r3, r3, r3, lsl #1
 1507 0014 DB00     		lsls	r3, r3, #3
 237:App/WS2812B/ws2812b.cpp ****         bufferIndex < _ledsCount * 24 + WS2812B_RESET_CODE_PADDING;
 1508              		.loc 1 237 39 view .LVU365
 1509 0016 2833     		adds	r3, r3, #40
 237:App/WS2812B/ws2812b.cpp ****         bufferIndex < _ledsCount * 24 + WS2812B_RESET_CODE_PADDING;
 1510              		.loc 1 237 21 view .LVU366
 1511 0018 9342     		cmp	r3, r2
 1512 001a F3D8     		bhi	.L62
 1513              	.LBE16:
 240:App/WS2812B/ws2812b.cpp **** }...
 1514              		.loc 1 240 1 view .LVU367
 1515 001c 7047     		bx	lr
 1516              		.cfi_endproc
 1517              	.LFE91:
 1518              		.cantunwind
 1519              		.fnend
 1521              		.text
 1522              	.Letext0:
 1523              		.file 2 "c:\\msys64\\mingw64\\arm-none-eabi\\include\\machine\\_default_types.h"
 1524              		.file 3 "c:\\msys64\\mingw64\\arm-none-eabi\\include\\sys\\_stdint.h"
 1525              		.file 4 "Drivers/CMSIS/Device/ST/STM32F1xx/Include/stm32f103xb.h"
 1526              		.file 5 "c:\\msys64\\mingw64\\lib\\gcc\\arm-none-eabi\\12.2.0\\include\\stddef.h"
ARM GAS  C:\Users\DARSTE~1\AppData\Local\Temp\ccBVkiXg.s 			page 36


 1527              		.file 6 "Drivers/STM32F1xx_HAL_Driver/Inc/stm32f1xx_hal_def.h"
 1528              		.file 7 "Drivers/STM32F1xx_HAL_Driver/Inc/stm32f1xx_hal_dma.h"
 1529              		.file 8 "Drivers/STM32F1xx_HAL_Driver/Inc/stm32f1xx_hal_tim.h"
 1530              		.file 9 "App/WS2812B/ws2812b.h"
 1531              		.file 10 "c:\\msys64\\mingw64\\arm-none-eabi\\include\\c++\\12.2.0\\cstdlib"
 1532              		.file 11 "c:\\msys64\\mingw64\\arm-none-eabi\\include\\c++\\12.2.0\\bits\\std_abs.h"
 1533              		.file 12 "c:\\msys64\\mingw64\\arm-none-eabi\\include\\c++\\12.2.0\\arm-none-eabi\\thumb\\v7-m\\no
 1534              		.file 13 "c:\\msys64\\mingw64\\arm-none-eabi\\include\\stdlib.h"
 1535              		.file 14 "c:\\msys64\\mingw64\\arm-none-eabi\\include\\c++\\12.2.0\\stdlib.h"
 1536              		.file 15 "c:\\msys64\\mingw64\\arm-none-eabi\\include\\string.h"
ARM GAS  C:\Users\DARSTE~1\AppData\Local\Temp\ccBVkiXg.s 			page 37


DEFINED SYMBOLS
                            *ABS*:00000000 ws2812b.cpp
C:\Users\DARSTE~1\AppData\Local\Temp\ccBVkiXg.s:19     .text._ZN7WS2812BC2EP17TIM_HandleTypeDefmt:00000000 $t
C:\Users\DARSTE~1\AppData\Local\Temp\ccBVkiXg.s:25     .text._ZN7WS2812BC2EP17TIM_HandleTypeDefmt:00000000 _ZN7WS2812BC2EP17TIM_HandleTypeDefmt
.ARM.exidx.text._ZN7WS2812BC2EP17TIM_HandleTypeDefmt:00000000 $d
C:\Users\DARSTE~1\AppData\Local\Temp\ccBVkiXg.s:25     .text._ZN7WS2812BC2EP17TIM_HandleTypeDefmt:00000000 _ZN7WS2812BC1EP17TIM_HandleTypeDefmt
C:\Users\DARSTE~1\AppData\Local\Temp\ccBVkiXg.s:52     .text._ZN7WS2812B4initEh:00000000 $t
C:\Users\DARSTE~1\AppData\Local\Temp\ccBVkiXg.s:58     .text._ZN7WS2812B4initEh:00000000 _ZN7WS2812B4initEh
C:\Users\DARSTE~1\AppData\Local\Temp\ccBVkiXg.s:150    .text._ZN7WS2812B4initEh:0000005c $d
.ARM.exidx.text._ZN7WS2812B4initEh:00000000 $d
C:\Users\DARSTE~1\AppData\Local\Temp\ccBVkiXg.s:157    .text._ZN7WS2812B10solidColorEmtt:00000000 $t
C:\Users\DARSTE~1\AppData\Local\Temp\ccBVkiXg.s:163    .text._ZN7WS2812B10solidColorEmtt:00000000 _ZN7WS2812B10solidColorEmtt
.ARM.exidx.text._ZN7WS2812B10solidColorEmtt:00000000 $d
C:\Users\DARSTE~1\AppData\Local\Temp\ccBVkiXg.s:208    .text._ZN7WS2812B10transitionEv:00000000 _ZN7WS2812B10transitionEv
.ARM.exidx.text._ZN7WS2812B10transitionEv:00000000 $d
C:\Users\DARSTE~1\AppData\Local\Temp\ccBVkiXg.s:224    .text._ZN7WS2812B18startCallbackClockEv:00000000 $t
C:\Users\DARSTE~1\AppData\Local\Temp\ccBVkiXg.s:230    .text._ZN7WS2812B18startCallbackClockEv:00000000 _ZN7WS2812B18startCallbackClockEv
.ARM.extab.text._ZN7WS2812B18startCallbackClockEv:00000000 $d
.ARM.exidx.text._ZN7WS2812B18startCallbackClockEv:00000000 $d
C:\Users\DARSTE~1\AppData\Local\Temp\ccBVkiXg.s:259    .text._ZN7WS2812B17stopCallbackClockEv:00000000 $t
C:\Users\DARSTE~1\AppData\Local\Temp\ccBVkiXg.s:265    .text._ZN7WS2812B17stopCallbackClockEv:00000000 _ZN7WS2812B17stopCallbackClockEv
.ARM.extab.text._ZN7WS2812B17stopCallbackClockEv:00000000 $d
.ARM.exidx.text._ZN7WS2812B17stopCallbackClockEv:00000000 $d
C:\Users\DARSTE~1\AppData\Local\Temp\ccBVkiXg.s:294    .text._ZN7WS2812B10extractRedEm:00000000 $t
C:\Users\DARSTE~1\AppData\Local\Temp\ccBVkiXg.s:300    .text._ZN7WS2812B10extractRedEm:00000000 _ZN7WS2812B10extractRedEm
.ARM.exidx.text._ZN7WS2812B10extractRedEm:00000000 $d
C:\Users\DARSTE~1\AppData\Local\Temp\ccBVkiXg.s:321    .text._ZN7WS2812B12extractGreenEm:00000000 $t
C:\Users\DARSTE~1\AppData\Local\Temp\ccBVkiXg.s:327    .text._ZN7WS2812B12extractGreenEm:00000000 _ZN7WS2812B12extractGreenEm
.ARM.exidx.text._ZN7WS2812B12extractGreenEm:00000000 $d
C:\Users\DARSTE~1\AppData\Local\Temp\ccBVkiXg.s:348    .text._ZN7WS2812B11extractBlueEm:00000000 $t
C:\Users\DARSTE~1\AppData\Local\Temp\ccBVkiXg.s:354    .text._ZN7WS2812B11extractBlueEm:00000000 _ZN7WS2812B11extractBlueEm
.ARM.exidx.text._ZN7WS2812B11extractBlueEm:00000000 $d
C:\Users\DARSTE~1\AppData\Local\Temp\ccBVkiXg.s:375    .text._ZN7WS2812B10combineRGBEhhh:00000000 $t
C:\Users\DARSTE~1\AppData\Local\Temp\ccBVkiXg.s:381    .text._ZN7WS2812B10combineRGBEhhh:00000000 _ZN7WS2812B10combineRGBEhhh
.ARM.exidx.text._ZN7WS2812B10combineRGBEhhh:00000000 $d
C:\Users\DARSTE~1\AppData\Local\Temp\ccBVkiXg.s:416    .text._ZN7WS2812B15gradient2ColorsEmtmt:00000000 $t
C:\Users\DARSTE~1\AppData\Local\Temp\ccBVkiXg.s:422    .text._ZN7WS2812B15gradient2ColorsEmtmt:00000000 _ZN7WS2812B15gradient2ColorsEmtmt
.ARM.exidx.text._ZN7WS2812B15gradient2ColorsEmtmt:00000000 $d
C:\Users\DARSTE~1\AppData\Local\Temp\ccBVkiXg.s:729    .text._ZN7WS2812B5toGRBEm:00000000 $t
C:\Users\DARSTE~1\AppData\Local\Temp\ccBVkiXg.s:735    .text._ZN7WS2812B5toGRBEm:00000000 _ZN7WS2812B5toGRBEm
.ARM.exidx.text._ZN7WS2812B5toGRBEm:00000000 $d
C:\Users\DARSTE~1\AppData\Local\Temp\ccBVkiXg.s:784    .text._ZN7WS2812B12updateBufferEv:00000000 $t
C:\Users\DARSTE~1\AppData\Local\Temp\ccBVkiXg.s:790    .text._ZN7WS2812B12updateBufferEv:00000000 _ZN7WS2812B12updateBufferEv
.ARM.exidx.text._ZN7WS2812B12updateBufferEv:00000000 $d
C:\Users\DARSTE~1\AppData\Local\Temp\ccBVkiXg.s:914    .text._ZN7WS2812B6renderEv:00000000 $t
C:\Users\DARSTE~1\AppData\Local\Temp\ccBVkiXg.s:920    .text._ZN7WS2812B6renderEv:00000000 _ZN7WS2812B6renderEv
.ARM.exidx.text._ZN7WS2812B6renderEv:00000000 $d
C:\Users\DARSTE~1\AppData\Local\Temp\ccBVkiXg.s:988    .text._ZN7WS2812B10transitionEPff:00000000 $t
C:\Users\DARSTE~1\AppData\Local\Temp\ccBVkiXg.s:994    .text._ZN7WS2812B10transitionEPff:00000000 _ZN7WS2812B10transitionEPff
C:\Users\DARSTE~1\AppData\Local\Temp\ccBVkiXg.s:1464   .text._ZN7WS2812B10transitionEPff:00000258 $d
.ARM.exidx.text._ZN7WS2812B10transitionEPff:00000000 $d
C:\Users\DARSTE~1\AppData\Local\Temp\ccBVkiXg.s:1470   .text._ZN7WS2812B11clearBufferEv:00000000 $t
C:\Users\DARSTE~1\AppData\Local\Temp\ccBVkiXg.s:1476   .text._ZN7WS2812B11clearBufferEv:00000000 _ZN7WS2812B11clearBufferEv
.ARM.exidx.text._ZN7WS2812B11clearBufferEv:00000000 $d

UNDEFINED SYMBOLS
calloc
ARM GAS  C:\Users\DARSTE~1\AppData\Local\Temp\ccBVkiXg.s 			page 38


HAL_TIM_Base_Start_IT
__aeabi_unwind_cpp_pr1
HAL_TIM_Base_Stop_IT
__aeabi_ui2f
__aeabi_fsub
__aeabi_i2f
__aeabi_fdiv
__aeabi_fmul
__aeabi_f2uiz
__aeabi_fadd
memcpy
HAL_TIM_PWM_Start_DMA
__aeabi_unwind_cpp_pr0
__aeabi_fcmpgt
__aeabi_fcmple
__aeabi_fcmpeq
free
