ARM GAS  C:\Users\DARSTE~1\AppData\Local\Temp\ccuC9E63.s 			page 1


   1              		.cpu cortex-m3
   2              		.arch armv7-m
   3              		.fpu softvfp
   4              		.eabi_attribute 20, 1
   5              		.eabi_attribute 21, 1
   6              		.eabi_attribute 23, 3
   7              		.eabi_attribute 24, 1
   8              		.eabi_attribute 25, 1
   9              		.eabi_attribute 26, 1
  10              		.eabi_attribute 30, 1
  11              		.eabi_attribute 34, 1
  12              		.eabi_attribute 18, 4
  13              		.file	"ws2812b.cpp"
  14              		.text
  15              	.Ltext0:
  16              		.cfi_sections	.debug_frame
  17              		.file 1 "App/WS2812B/ws2812b.cpp"
  18              		.section	.text._ZN7WS2812BC2EP17TIM_HandleTypeDefmt,"ax",%progbits
  19              		.align	1
  20              		.global	_ZN7WS2812BC2EP17TIM_HandleTypeDefmt
  21              		.syntax unified
  22              		.thumb
  23              		.thumb_func
  25              	_ZN7WS2812BC2EP17TIM_HandleTypeDefmt:
  26              		.fnstart
  27              	.LVL0:
  28              	.LFB75:
   1:App/WS2812B/ws2812b.cpp **** #include "ws2812b.h"
   2:App/WS2812B/ws2812b.cpp **** #include <stdlib.h>
   3:App/WS2812B/ws2812b.cpp **** #include <string.h>
   4:App/WS2812B/ws2812b.cpp **** 
   5:App/WS2812B/ws2812b.cpp **** /*
   6:App/WS2812B/ws2812b.cpp **** =====================================================================
   7:App/WS2812B/ws2812b.cpp ****     PRIVATE FUNCTIONS
   8:App/WS2812B/ws2812b.cpp **** =====================================================================
   9:App/WS2812B/ws2812b.cpp **** */
  10:App/WS2812B/ws2812b.cpp **** 
  11:App/WS2812B/ws2812b.cpp **** 
  12:App/WS2812B/ws2812b.cpp **** /*
  13:App/WS2812B/ws2812b.cpp **** =====================================================================
  14:App/WS2812B/ws2812b.cpp ****     CONSTRUCTORS
  15:App/WS2812B/ws2812b.cpp **** =====================================================================
  16:App/WS2812B/ws2812b.cpp **** */
  17:App/WS2812B/ws2812b.cpp **** 
  18:App/WS2812B/ws2812b.cpp **** WS2812B::WS2812B(TIM_HandleTypeDef *PWMgenerator, uint32_t channel, uint16_t numLed)
  29              		.loc 1 18 1 view -0
  30              		.cfi_startproc
  31              		@ args = 0, pretend = 0, frame = 0
  32              		@ frame_needed = 0, uses_anonymous_args = 0
  33              		@ link register save eliminated.
  34              	.LBB2:
  19:App/WS2812B/ws2812b.cpp ****     : _PWMgenerator(PWMgenerator), _channel(channel), _ledsCount(numLed)
  35              		.loc 1 19 7 is_stmt 0 view .LVU1
  36 0000 4160     		str	r1, [r0, #4]
  37              		.loc 1 19 55 view .LVU2
  38 0002 0381     		strh	r3, [r0, #8]	@ movhi
  39              		.loc 1 19 36 view .LVU3
ARM GAS  C:\Users\DARSTE~1\AppData\Local\Temp\ccuC9E63.s 			page 2


  40 0004 C260     		str	r2, [r0, #12]
  41              	.LBE2:
  20:App/WS2812B/ws2812b.cpp **** {
  21:App/WS2812B/ws2812b.cpp **** }
  42              		.loc 1 21 1 view .LVU4
  43 0006 7047     		bx	lr
  44              		.cfi_endproc
  45              	.LFE75:
  46              		.cantunwind
  47              		.fnend
  49              		.global	_ZN7WS2812BC1EP17TIM_HandleTypeDefmt
  50              		.thumb_set _ZN7WS2812BC1EP17TIM_HandleTypeDefmt,_ZN7WS2812BC2EP17TIM_HandleTypeDefmt
  51              		.section	.text._ZN7WS2812B4initEh,"ax",%progbits
  52              		.align	1
  53              		.global	_ZN7WS2812B4initEh
  54              		.syntax unified
  55              		.thumb
  56              		.thumb_func
  58              	_ZN7WS2812B4initEh:
  59              		.fnstart
  60              	.LVL1:
  61              	.LFB77:
  22:App/WS2812B/ws2812b.cpp **** 
  23:App/WS2812B/ws2812b.cpp **** 
  24:App/WS2812B/ws2812b.cpp **** /*
  25:App/WS2812B/ws2812b.cpp **** =====================================================================
  26:App/WS2812B/ws2812b.cpp ****     METHODS
  27:App/WS2812B/ws2812b.cpp **** =====================================================================
  28:App/WS2812B/ws2812b.cpp **** */
  29:App/WS2812B/ws2812b.cpp **** 
  30:App/WS2812B/ws2812b.cpp **** void WS2812B::init(uint8_t DMAincrement)
  31:App/WS2812B/ws2812b.cpp **** {
  62              		.loc 1 31 1 is_stmt 1 view -0
  63              		.cfi_startproc
  64              		@ args = 0, pretend = 0, frame = 0
  65              		@ frame_needed = 0, uses_anonymous_args = 0
  66              		.loc 1 31 1 is_stmt 0 view .LVU6
  67 0000 70B5     		push	{r4, r5, r6, lr}
  68              	.LCFI0:
  69              		.cfi_def_cfa_offset 16
  70              		.cfi_offset 4, -16
  71              		.cfi_offset 5, -12
  72              		.cfi_offset 6, -8
  73              		.cfi_offset 14, -4
  74 0002 0446     		mov	r4, r0
  75 0004 0D46     		mov	r5, r1
  32:App/WS2812B/ws2812b.cpp ****     _colorData = (uint32_t *)calloc(_ledsCount, sizeof(uint32_t));
  76              		.loc 1 32 5 is_stmt 1 view .LVU7
  77              		.loc 1 32 37 is_stmt 0 view .LVU8
  78 0006 0689     		ldrh	r6, [r0, #8]
  79              		.loc 1 32 36 view .LVU9
  80 0008 0421     		movs	r1, #4
  81              	.LVL2:
  82              		.loc 1 32 36 view .LVU10
  83 000a 3046     		mov	r0, r6
  84              	.LVL3:
  85              		.loc 1 32 36 view .LVU11
ARM GAS  C:\Users\DARSTE~1\AppData\Local\Temp\ccuC9E63.s 			page 3


  86 000c FFF7FEFF 		bl	calloc
  87              	.LVL4:
  88              		.loc 1 32 16 view .LVU12
  89 0010 A061     		str	r0, [r4, #24]
  33:App/WS2812B/ws2812b.cpp ****     _targetColorData = (uint32_t *)calloc(_ledsCount, sizeof(uint32_t));
  90              		.loc 1 33 5 is_stmt 1 view .LVU13
  91              		.loc 1 33 42 is_stmt 0 view .LVU14
  92 0012 0421     		movs	r1, #4
  93 0014 3046     		mov	r0, r6
  94 0016 FFF7FEFF 		bl	calloc
  95              	.LVL5:
  96              		.loc 1 33 22 view .LVU15
  97 001a E061     		str	r0, [r4, #28]
  34:App/WS2812B/ws2812b.cpp ****     _buffer = (uint32_t *)calloc(
  98              		.loc 1 34 5 is_stmt 1 view .LVU16
  35:App/WS2812B/ws2812b.cpp ****         _ledsCount * 24 + WS2812B_RESET_CODE_PADDING, sizeof(uint32_t)
  99              		.loc 1 35 20 is_stmt 0 view .LVU17
 100 001c 06EB4606 		add	r6, r6, r6, lsl #1
 101 0020 F000     		lsls	r0, r6, #3
  34:App/WS2812B/ws2812b.cpp ****     _buffer = (uint32_t *)calloc(
 102              		.loc 1 34 33 view .LVU18
 103 0022 0421     		movs	r1, #4
 104 0024 2830     		adds	r0, r0, #40
 105 0026 FFF7FEFF 		bl	calloc
 106              	.LVL6:
  34:App/WS2812B/ws2812b.cpp ****     _buffer = (uint32_t *)calloc(
 107              		.loc 1 34 13 view .LVU19
 108 002a 2063     		str	r0, [r4, #48]
  36:App/WS2812B/ws2812b.cpp ****     );
  37:App/WS2812B/ws2812b.cpp ****     _BIT_1_HIGH = 2 * _PWMgenerator->Instance->ARR / 3 + 1;
 109              		.loc 1 37 5 is_stmt 1 view .LVU20
 110              		.loc 1 37 23 is_stmt 0 view .LVU21
 111 002c 6168     		ldr	r1, [r4, #4]
 112              		.loc 1 37 38 view .LVU22
 113 002e 0B68     		ldr	r3, [r1]
 114              		.loc 1 37 48 view .LVU23
 115 0030 DB6A     		ldr	r3, [r3, #44]
 116              		.loc 1 37 21 view .LVU24
 117 0032 5B00     		lsls	r3, r3, #1
 118              		.loc 1 37 52 view .LVU25
 119 0034 094A     		ldr	r2, .L4
 120 0036 A2FB0303 		umull	r0, r3, r2, r3
 121 003a 5B08     		lsrs	r3, r3, #1
 122              		.loc 1 37 56 view .LVU26
 123 003c 0133     		adds	r3, r3, #1
 124              		.loc 1 37 17 view .LVU27
 125 003e 2361     		str	r3, [r4, #16]
  38:App/WS2812B/ws2812b.cpp ****     _BIT_0_HIGH = _PWMgenerator->Instance->ARR / 3 + 1;
 126              		.loc 1 38 5 is_stmt 1 view .LVU28
 127              		.loc 1 38 34 is_stmt 0 view .LVU29
 128 0040 0B68     		ldr	r3, [r1]
 129              		.loc 1 38 44 view .LVU30
 130 0042 DB6A     		ldr	r3, [r3, #44]
 131              		.loc 1 38 48 view .LVU31
 132 0044 A2FB0323 		umull	r2, r3, r2, r3
 133 0048 5B08     		lsrs	r3, r3, #1
 134              		.loc 1 38 52 view .LVU32
ARM GAS  C:\Users\DARSTE~1\AppData\Local\Temp\ccuC9E63.s 			page 4


 135 004a 0133     		adds	r3, r3, #1
 136              		.loc 1 38 17 view .LVU33
 137 004c 6361     		str	r3, [r4, #20]
  39:App/WS2812B/ws2812b.cpp ****     _bufferDataMultiplier = 24 * DMAincrement;
 138              		.loc 1 39 5 is_stmt 1 view .LVU34
 139              		.loc 1 39 27 is_stmt 0 view .LVU35
 140 004e 05EB4505 		add	r5, r5, r5, lsl #1
 141 0052 ED00     		lsls	r5, r5, #3
 142 0054 84F83450 		strb	r5, [r4, #52]
  40:App/WS2812B/ws2812b.cpp **** }
 143              		.loc 1 40 1 view .LVU36
 144 0058 70BD     		pop	{r4, r5, r6, pc}
 145              	.LVL7:
 146              	.L5:
 147              		.loc 1 40 1 view .LVU37
 148 005a 00BF     		.align	2
 149              	.L4:
 150 005c ABAAAAAA 		.word	-1431655765
 151              		.cfi_endproc
 152              	.LFE77:
 153              		.cantunwind
 154              		.fnend
 156              		.section	.text._ZN7WS2812B10solidColorEmtt,"ax",%progbits
 157              		.align	1
 158              		.global	_ZN7WS2812B10solidColorEmtt
 159              		.syntax unified
 160              		.thumb
 161              		.thumb_func
 163              	_ZN7WS2812B10solidColorEmtt:
 164              		.fnstart
 165              	.LVL8:
 166              	.LFB78:
  41:App/WS2812B/ws2812b.cpp **** 
  42:App/WS2812B/ws2812b.cpp **** void WS2812B::solidColor(uint32_t color, uint16_t start, uint16_t end)
  43:App/WS2812B/ws2812b.cpp **** {
 167              		.loc 1 43 1 is_stmt 1 view -0
 168              		.cfi_startproc
 169              		@ args = 0, pretend = 0, frame = 0
 170              		@ frame_needed = 0, uses_anonymous_args = 0
 171              		@ link register save eliminated.
  44:App/WS2812B/ws2812b.cpp ****     // color = WS2812B::toGRB(color);
  45:App/WS2812B/ws2812b.cpp ****     for (uint16_t ledIndex = start; ledIndex <= end; ledIndex++)
 172              		.loc 1 45 5 view .LVU39
 173              	.LBB3:
 174              		.loc 1 45 5 is_stmt 0 view .LVU40
 175 0000 05E0     		b	.L7
 176              	.LVL9:
 177              	.L8:
  46:App/WS2812B/ws2812b.cpp ****         _targetColorData[ledIndex] = color;
 178              		.loc 1 46 9 is_stmt 1 discriminator 3 view .LVU41
 179              		.loc 1 46 36 is_stmt 0 discriminator 3 view .LVU42
 180 0002 D0F81CC0 		ldr	ip, [r0, #28]
 181 0006 4CF82210 		str	r1, [ip, r2, lsl #2]
  45:App/WS2812B/ws2812b.cpp ****         _targetColorData[ledIndex] = color;
 182              		.loc 1 45 5 is_stmt 1 discriminator 3 view .LVU43
 183 000a 0132     		adds	r2, r2, #1
 184              	.LVL10:
ARM GAS  C:\Users\DARSTE~1\AppData\Local\Temp\ccuC9E63.s 			page 5


  45:App/WS2812B/ws2812b.cpp ****         _targetColorData[ledIndex] = color;
 185              		.loc 1 45 5 is_stmt 0 discriminator 3 view .LVU44
 186 000c 92B2     		uxth	r2, r2
 187              	.LVL11:
 188              	.L7:
  45:App/WS2812B/ws2812b.cpp ****         _targetColorData[ledIndex] = color;
 189              		.loc 1 45 46 is_stmt 1 discriminator 1 view .LVU45
 190 000e 9A42     		cmp	r2, r3
 191 0010 F7D9     		bls	.L8
  45:App/WS2812B/ws2812b.cpp ****         _targetColorData[ledIndex] = color;
 192              		.loc 1 45 46 is_stmt 0 discriminator 1 view .LVU46
 193              	.LBE3:
  47:App/WS2812B/ws2812b.cpp **** }
 194              		.loc 1 47 1 view .LVU47
 195 0012 7047     		bx	lr
 196              		.cfi_endproc
 197              	.LFE78:
 198              		.cantunwind
 199              		.fnend
 201              		.section	.text._ZN7WS2812B18startCallbackClockEv,"ax",%progbits
 202              		.align	1
 203              		.global	_ZN7WS2812B18startCallbackClockEv
 204              		.syntax unified
 205              		.thumb
 206              		.thumb_func
 208              	_ZN7WS2812B18startCallbackClockEv:
 209              		.fnstart
 210              	.LVL12:
 211              	.LFB83:
  48:App/WS2812B/ws2812b.cpp **** 
  49:App/WS2812B/ws2812b.cpp **** void WS2812B::gradient2Colors(uint32_t startColor, uint16_t start, uint32_t endColor, uint16_t end)
  50:App/WS2812B/ws2812b.cpp **** {
  51:App/WS2812B/ws2812b.cpp ****     float stepRed = (float)WS2812B::extractRed(startColor) - (float)WS2812B::extractRed(endColor);
  52:App/WS2812B/ws2812b.cpp ****     float stepGreen = (float)WS2812B::extractGreen(startColor) - (float)WS2812B::extractGreen(endCo
  53:App/WS2812B/ws2812b.cpp ****     float stepBlue = (float)WS2812B::extractBlue(startColor) - (float)WS2812B::extractBlue(endColor
  54:App/WS2812B/ws2812b.cpp ****     stepRed = stepRed / (float)(end - start);
  55:App/WS2812B/ws2812b.cpp ****     stepGreen = stepGreen / (float)(end - start);
  56:App/WS2812B/ws2812b.cpp ****     stepBlue = stepBlue / (float)(end - start);
  57:App/WS2812B/ws2812b.cpp **** 
  58:App/WS2812B/ws2812b.cpp ****     uint16_t colorIterate = 0;
  59:App/WS2812B/ws2812b.cpp ****     while (start <= end)
  60:App/WS2812B/ws2812b.cpp ****     {
  61:App/WS2812B/ws2812b.cpp ****         _targetColorData[start] = WS2812B::combineRGB(
  62:App/WS2812B/ws2812b.cpp ****             WS2812B::extractRed(startColor) - colorIterate * stepRed,
  63:App/WS2812B/ws2812b.cpp ****             WS2812B::extractGreen(startColor) - colorIterate * stepGreen,
  64:App/WS2812B/ws2812b.cpp ****             WS2812B::extractBlue(startColor) - colorIterate * stepBlue
  65:App/WS2812B/ws2812b.cpp ****         );
  66:App/WS2812B/ws2812b.cpp ****         _targetColorData[end] = WS2812B::combineRGB(
  67:App/WS2812B/ws2812b.cpp ****             WS2812B::extractRed(endColor) + colorIterate * stepRed,
  68:App/WS2812B/ws2812b.cpp ****             WS2812B::extractGreen(endColor) + colorIterate * stepGreen,
  69:App/WS2812B/ws2812b.cpp ****             WS2812B::extractBlue(endColor) + colorIterate * stepBlue
  70:App/WS2812B/ws2812b.cpp ****         );
  71:App/WS2812B/ws2812b.cpp ****         colorIterate++; start++; end--;
  72:App/WS2812B/ws2812b.cpp ****     }
  73:App/WS2812B/ws2812b.cpp **** }
  74:App/WS2812B/ws2812b.cpp **** 
  75:App/WS2812B/ws2812b.cpp **** void WS2812B::render()
ARM GAS  C:\Users\DARSTE~1\AppData\Local\Temp\ccuC9E63.s 			page 6


  76:App/WS2812B/ws2812b.cpp **** {
  77:App/WS2812B/ws2812b.cpp ****     memcpy(_colorData, _targetColorData, _ledsCount * 4);
  78:App/WS2812B/ws2812b.cpp ****     WS2812B::updateBuffer();
  79:App/WS2812B/ws2812b.cpp **** 
  80:App/WS2812B/ws2812b.cpp ****     HAL_TIM_PWM_Start_DMA(
  81:App/WS2812B/ws2812b.cpp ****         _PWMgenerator, _channel,
  82:App/WS2812B/ws2812b.cpp ****         (uint32_t *)_buffer,
  83:App/WS2812B/ws2812b.cpp ****         _ledsCount * _bufferDataMultiplier
  84:App/WS2812B/ws2812b.cpp ****     );
  85:App/WS2812B/ws2812b.cpp **** 
  86:App/WS2812B/ws2812b.cpp ****     UPDATE_STATE = WS2812B_UPDATE_ONGOING;
  87:App/WS2812B/ws2812b.cpp ****     while (UPDATE_STATE == WS2812B_UPDATE_ONGOING);
  88:App/WS2812B/ws2812b.cpp **** }
  89:App/WS2812B/ws2812b.cpp **** 
  90:App/WS2812B/ws2812b.cpp **** WS2812B_CONST WS2812B::transition()
  91:App/WS2812B/ws2812b.cpp **** {
  92:App/WS2812B/ws2812b.cpp ****     uint16_t checkDifference = 0;
  93:App/WS2812B/ws2812b.cpp ****     for (uint16_t ledIterate = 0; ledIterate < _ledsCount; ledIterate++)
  94:App/WS2812B/ws2812b.cpp ****     {
  95:App/WS2812B/ws2812b.cpp ****         if (_colorData[ledIterate] == _targetColorData[ledIterate])
  96:App/WS2812B/ws2812b.cpp ****         {
  97:App/WS2812B/ws2812b.cpp ****             checkDifference++;
  98:App/WS2812B/ws2812b.cpp ****             continue;
  99:App/WS2812B/ws2812b.cpp ****         }
 100:App/WS2812B/ws2812b.cpp **** 
 101:App/WS2812B/ws2812b.cpp ****         uint8_t currentRed = WS2812B::extractRed(_colorData[ledIterate]);
 102:App/WS2812B/ws2812b.cpp ****         uint8_t currentGreen = WS2812B::extractGreen(_colorData[ledIterate]);
 103:App/WS2812B/ws2812b.cpp ****         uint8_t currentBlue = WS2812B::extractBlue(_colorData[ledIterate]);
 104:App/WS2812B/ws2812b.cpp **** 
 105:App/WS2812B/ws2812b.cpp ****         uint8_t targetRed = WS2812B::extractRed(_targetColorData[ledIterate]);
 106:App/WS2812B/ws2812b.cpp ****         uint8_t targetGreen = WS2812B::extractGreen(_targetColorData[ledIterate]);
 107:App/WS2812B/ws2812b.cpp ****         uint8_t targetBlue = WS2812B::extractBlue(_targetColorData[ledIterate]);
 108:App/WS2812B/ws2812b.cpp **** 
 109:App/WS2812B/ws2812b.cpp ****         if (currentRed < targetRed) currentRed++;
 110:App/WS2812B/ws2812b.cpp ****         else if (currentRed > targetRed) currentRed--;
 111:App/WS2812B/ws2812b.cpp **** 
 112:App/WS2812B/ws2812b.cpp ****         if (currentGreen < targetGreen) currentGreen++;
 113:App/WS2812B/ws2812b.cpp ****         else if (currentGreen > targetGreen) currentGreen--;
 114:App/WS2812B/ws2812b.cpp **** 
 115:App/WS2812B/ws2812b.cpp ****         if (currentBlue < targetBlue) currentBlue++;
 116:App/WS2812B/ws2812b.cpp ****         else if (currentBlue > targetBlue) currentBlue--;
 117:App/WS2812B/ws2812b.cpp **** 
 118:App/WS2812B/ws2812b.cpp ****         _colorData[ledIterate] = WS2812B::combineRGB(currentRed, currentGreen, currentBlue);
 119:App/WS2812B/ws2812b.cpp ****     }
 120:App/WS2812B/ws2812b.cpp **** 
 121:App/WS2812B/ws2812b.cpp ****     if (checkDifference == _ledsCount)
 122:App/WS2812B/ws2812b.cpp ****         return WS2812B_TRANSITION_FINISHED;
 123:App/WS2812B/ws2812b.cpp **** 
 124:App/WS2812B/ws2812b.cpp ****     WS2812B::updateBuffer();
 125:App/WS2812B/ws2812b.cpp **** 
 126:App/WS2812B/ws2812b.cpp ****     HAL_TIM_PWM_Start_DMA(
 127:App/WS2812B/ws2812b.cpp ****         _PWMgenerator, _channel,
 128:App/WS2812B/ws2812b.cpp ****         (uint32_t *)_buffer,
 129:App/WS2812B/ws2812b.cpp ****         _ledsCount * _bufferDataMultiplier
 130:App/WS2812B/ws2812b.cpp ****     );
 131:App/WS2812B/ws2812b.cpp **** 
 132:App/WS2812B/ws2812b.cpp ****     UPDATE_STATE = WS2812B_UPDATE_ONGOING;
ARM GAS  C:\Users\DARSTE~1\AppData\Local\Temp\ccuC9E63.s 			page 7


 133:App/WS2812B/ws2812b.cpp ****     while (UPDATE_STATE == WS2812B_UPDATE_ONGOING);
 134:App/WS2812B/ws2812b.cpp **** 
 135:App/WS2812B/ws2812b.cpp ****     return (WS2812B_CONST)0;
 136:App/WS2812B/ws2812b.cpp **** }
 137:App/WS2812B/ws2812b.cpp **** 
 138:App/WS2812B/ws2812b.cpp **** WS2812B_CONST WS2812B::transition(float *timeTick, float duration)
 139:App/WS2812B/ws2812b.cpp **** {
 140:App/WS2812B/ws2812b.cpp ****     if (*timeTick > duration)
 141:App/WS2812B/ws2812b.cpp ****     {
 142:App/WS2812B/ws2812b.cpp ****         free(_transRed); free(_transGreen); free(_transBlue);
 143:App/WS2812B/ws2812b.cpp ****         free(_prevColorData);
 144:App/WS2812B/ws2812b.cpp ****         return WS2812B_TRANSITION_FINISHED;
 145:App/WS2812B/ws2812b.cpp ****     }
 146:App/WS2812B/ws2812b.cpp **** 
 147:App/WS2812B/ws2812b.cpp ****     if (duration <= 0.00f)
 148:App/WS2812B/ws2812b.cpp ****         return WS2812B_TRANSITION_FINISHED;
 149:App/WS2812B/ws2812b.cpp **** 
 150:App/WS2812B/ws2812b.cpp ****     if (*timeTick == 0.00f)
 151:App/WS2812B/ws2812b.cpp ****     {
 152:App/WS2812B/ws2812b.cpp ****         *timeTick = *timeTick + duration / 1000.0f; // Prevent accidental memory leak
 153:App/WS2812B/ws2812b.cpp ****         _transRed = (float *)calloc(_ledsCount, sizeof(uint32_t));
 154:App/WS2812B/ws2812b.cpp ****         _transGreen = (float *)calloc(_ledsCount, sizeof(uint32_t));
 155:App/WS2812B/ws2812b.cpp ****         _transBlue = (float *)calloc(_ledsCount, sizeof(uint32_t));
 156:App/WS2812B/ws2812b.cpp ****         _prevColorData = (uint32_t *)calloc(_ledsCount, sizeof(uint32_t));
 157:App/WS2812B/ws2812b.cpp ****         for (uint16_t ledIterate = 0; ledIterate < _ledsCount; ledIterate++)
 158:App/WS2812B/ws2812b.cpp ****         {
 159:App/WS2812B/ws2812b.cpp ****             _transRed[ledIterate] = (float)WS2812B::extractRed(_targetColorData[ledIterate]) - (flo
 160:App/WS2812B/ws2812b.cpp ****             _transGreen[ledIterate] = (float)WS2812B::extractGreen(_targetColorData[ledIterate]) - 
 161:App/WS2812B/ws2812b.cpp ****             _transBlue[ledIterate] = (float)WS2812B::extractBlue(_targetColorData[ledIterate]) - (f
 162:App/WS2812B/ws2812b.cpp ****             _transRed[ledIterate] = _transRed[ledIterate] / duration;
 163:App/WS2812B/ws2812b.cpp ****             _transGreen[ledIterate] = _transGreen[ledIterate] / duration;
 164:App/WS2812B/ws2812b.cpp ****             _transBlue[ledIterate] = _transBlue[ledIterate] / duration;
 165:App/WS2812B/ws2812b.cpp ****         }
 166:App/WS2812B/ws2812b.cpp ****         for (uint16_t ledIterate = 0; ledIterate < _ledsCount; ledIterate++)
 167:App/WS2812B/ws2812b.cpp ****             _prevColorData[ledIterate] = _colorData[ledIterate];
 168:App/WS2812B/ws2812b.cpp ****     }
 169:App/WS2812B/ws2812b.cpp **** 
 170:App/WS2812B/ws2812b.cpp ****     for (uint16_t ledIterate = 0; ledIterate < _ledsCount; ledIterate++)
 171:App/WS2812B/ws2812b.cpp ****         _colorData[ledIterate] = WS2812B::combineRGB(
 172:App/WS2812B/ws2812b.cpp ****             WS2812B::extractRed(_prevColorData[ledIterate]) + *timeTick * _transRed[ledIterate],
 173:App/WS2812B/ws2812b.cpp ****             WS2812B::extractGreen(_prevColorData[ledIterate]) + *timeTick * _transGreen[ledIterate]
 174:App/WS2812B/ws2812b.cpp ****             WS2812B::extractBlue(_prevColorData[ledIterate]) + *timeTick * _transBlue[ledIterate]
 175:App/WS2812B/ws2812b.cpp ****         );
 176:App/WS2812B/ws2812b.cpp **** 
 177:App/WS2812B/ws2812b.cpp ****     WS2812B::updateBuffer();
 178:App/WS2812B/ws2812b.cpp **** 
 179:App/WS2812B/ws2812b.cpp ****     HAL_TIM_PWM_Start_DMA(
 180:App/WS2812B/ws2812b.cpp ****         _PWMgenerator, _channel,
 181:App/WS2812B/ws2812b.cpp ****         (uint32_t *)_buffer,
 182:App/WS2812B/ws2812b.cpp ****         _ledsCount * _bufferDataMultiplier
 183:App/WS2812B/ws2812b.cpp ****     );
 184:App/WS2812B/ws2812b.cpp **** 
 185:App/WS2812B/ws2812b.cpp ****     UPDATE_STATE = WS2812B_UPDATE_ONGOING;
 186:App/WS2812B/ws2812b.cpp ****     while (UPDATE_STATE == WS2812B_UPDATE_ONGOING);
 187:App/WS2812B/ws2812b.cpp **** 
 188:App/WS2812B/ws2812b.cpp ****     return (WS2812B_CONST)0;
 189:App/WS2812B/ws2812b.cpp **** }
ARM GAS  C:\Users\DARSTE~1\AppData\Local\Temp\ccuC9E63.s 			page 8


 190:App/WS2812B/ws2812b.cpp **** 
 191:App/WS2812B/ws2812b.cpp ****  void WS2812B::startCallbackClock()
 192:App/WS2812B/ws2812b.cpp ****  { HAL_TIM_Base_Start_IT(_PWMgenerator); }
 212              		.loc 1 192 2 is_stmt 1 view -0
 213              		.cfi_startproc
 214              		@ args = 0, pretend = 0, frame = 0
 215              		@ frame_needed = 0, uses_anonymous_args = 0
 216              		.loc 1 192 2 is_stmt 0 view .LVU49
 217 0000 08B5     		push	{r3, lr}
 218              		.save {r3, lr}
 219              	.LCFI1:
 220              		.cfi_def_cfa_offset 8
 221              		.cfi_offset 3, -8
 222              		.cfi_offset 14, -4
 223              		.loc 1 192 4 is_stmt 1 view .LVU50
 224              		.loc 1 192 25 is_stmt 0 view .LVU51
 225 0002 4068     		ldr	r0, [r0, #4]
 226              	.LVL13:
 227              		.loc 1 192 25 view .LVU52
 228 0004 FFF7FEFF 		bl	HAL_TIM_Base_Start_IT
 229              	.LVL14:
 230              		.loc 1 192 42 view .LVU53
 231 0008 08BD     		pop	{r3, pc}
 232              		.cfi_endproc
 233              	.LFE83:
 234              		.fnend
 236              		.section	.text._ZN7WS2812B17stopCallbackClockEv,"ax",%progbits
 237              		.align	1
 238              		.global	_ZN7WS2812B17stopCallbackClockEv
 239              		.syntax unified
 240              		.thumb
 241              		.thumb_func
 243              	_ZN7WS2812B17stopCallbackClockEv:
 244              		.fnstart
 245              	.LVL15:
 246              	.LFB84:
 193:App/WS2812B/ws2812b.cpp ****   void WS2812B::stopCallbackClock()
 194:App/WS2812B/ws2812b.cpp ****  { HAL_TIM_Base_Stop_IT(_PWMgenerator); }
 247              		.loc 1 194 2 is_stmt 1 view -0
 248              		.cfi_startproc
 249              		@ args = 0, pretend = 0, frame = 0
 250              		@ frame_needed = 0, uses_anonymous_args = 0
 251              		.loc 1 194 2 is_stmt 0 view .LVU55
 252 0000 08B5     		push	{r3, lr}
 253              		.save {r3, lr}
 254              	.LCFI2:
 255              		.cfi_def_cfa_offset 8
 256              		.cfi_offset 3, -8
 257              		.cfi_offset 14, -4
 258              		.loc 1 194 4 is_stmt 1 view .LVU56
 259              		.loc 1 194 24 is_stmt 0 view .LVU57
 260 0002 4068     		ldr	r0, [r0, #4]
 261              	.LVL16:
 262              		.loc 1 194 24 view .LVU58
 263 0004 FFF7FEFF 		bl	HAL_TIM_Base_Stop_IT
 264              	.LVL17:
 265              		.loc 1 194 41 view .LVU59
ARM GAS  C:\Users\DARSTE~1\AppData\Local\Temp\ccuC9E63.s 			page 9


 266 0008 08BD     		pop	{r3, pc}
 267              		.cfi_endproc
 268              	.LFE84:
 269              		.fnend
 271              		.section	.text._ZN7WS2812B10extractRedEm,"ax",%progbits
 272              		.align	1
 273              		.global	_ZN7WS2812B10extractRedEm
 274              		.syntax unified
 275              		.thumb
 276              		.thumb_func
 278              	_ZN7WS2812B10extractRedEm:
 279              		.fnstart
 280              	.LVL18:
 281              	.LFB85:
 195:App/WS2812B/ws2812b.cpp **** 
 196:App/WS2812B/ws2812b.cpp **** uint8_t WS2812B::extractRed(uint32_t RGB)
 197:App/WS2812B/ws2812b.cpp **** { return (uint8_t)((RGB >> 16) & 0xFF); }
 282              		.loc 1 197 1 is_stmt 1 view -0
 283              		.cfi_startproc
 284              		@ args = 0, pretend = 0, frame = 0
 285              		@ frame_needed = 0, uses_anonymous_args = 0
 286              		@ link register save eliminated.
 287              		.loc 1 197 3 view .LVU61
 288              		.loc 1 197 41 is_stmt 0 view .LVU62
 289 0000 C1F30740 		ubfx	r0, r1, #16, #8
 290              	.LVL19:
 291              		.loc 1 197 41 view .LVU63
 292 0004 7047     		bx	lr
 293              		.cfi_endproc
 294              	.LFE85:
 295              		.cantunwind
 296              		.fnend
 298              		.section	.text._ZN7WS2812B12extractGreenEm,"ax",%progbits
 299              		.align	1
 300              		.global	_ZN7WS2812B12extractGreenEm
 301              		.syntax unified
 302              		.thumb
 303              		.thumb_func
 305              	_ZN7WS2812B12extractGreenEm:
 306              		.fnstart
 307              	.LVL20:
 308              	.LFB86:
 198:App/WS2812B/ws2812b.cpp **** uint8_t WS2812B::extractGreen(uint32_t RGB)
 199:App/WS2812B/ws2812b.cpp **** { return (uint8_t)((RGB >> 8) & 0xFF); }
 309              		.loc 1 199 1 is_stmt 1 view -0
 310              		.cfi_startproc
 311              		@ args = 0, pretend = 0, frame = 0
 312              		@ frame_needed = 0, uses_anonymous_args = 0
 313              		@ link register save eliminated.
 314              		.loc 1 199 3 view .LVU65
 315              		.loc 1 199 40 is_stmt 0 view .LVU66
 316 0000 C1F30720 		ubfx	r0, r1, #8, #8
 317              	.LVL21:
 318              		.loc 1 199 40 view .LVU67
 319 0004 7047     		bx	lr
 320              		.cfi_endproc
 321              	.LFE86:
ARM GAS  C:\Users\DARSTE~1\AppData\Local\Temp\ccuC9E63.s 			page 10


 322              		.cantunwind
 323              		.fnend
 325              		.section	.text._ZN7WS2812B11extractBlueEm,"ax",%progbits
 326              		.align	1
 327              		.global	_ZN7WS2812B11extractBlueEm
 328              		.syntax unified
 329              		.thumb
 330              		.thumb_func
 332              	_ZN7WS2812B11extractBlueEm:
 333              		.fnstart
 334              	.LVL22:
 335              	.LFB87:
 200:App/WS2812B/ws2812b.cpp **** uint8_t WS2812B::extractBlue(uint32_t RGB)
 201:App/WS2812B/ws2812b.cpp **** { return (uint8_t)((RGB >> 0) & 0xFF); }
 336              		.loc 1 201 1 is_stmt 1 view -0
 337              		.cfi_startproc
 338              		@ args = 0, pretend = 0, frame = 0
 339              		@ frame_needed = 0, uses_anonymous_args = 0
 340              		@ link register save eliminated.
 341              		.loc 1 201 3 view .LVU69
 342              		.loc 1 201 40 is_stmt 0 view .LVU70
 343 0000 C8B2     		uxtb	r0, r1
 344              	.LVL23:
 345              		.loc 1 201 40 view .LVU71
 346 0002 7047     		bx	lr
 347              		.cfi_endproc
 348              	.LFE87:
 349              		.cantunwind
 350              		.fnend
 352              		.section	.text._ZN7WS2812B10combineRGBEhhh,"ax",%progbits
 353              		.align	1
 354              		.global	_ZN7WS2812B10combineRGBEhhh
 355              		.syntax unified
 356              		.thumb
 357              		.thumb_func
 359              	_ZN7WS2812B10combineRGBEhhh:
 360              		.fnstart
 361              	.LVL24:
 362              	.LFB88:
 202:App/WS2812B/ws2812b.cpp **** uint32_t WS2812B::combineRGB(uint8_t red, uint8_t green, uint8_t blue)
 203:App/WS2812B/ws2812b.cpp **** {
 363              		.loc 1 203 1 is_stmt 1 view -0
 364              		.cfi_startproc
 365              		@ args = 0, pretend = 0, frame = 0
 366              		@ frame_needed = 0, uses_anonymous_args = 0
 367              		@ link register save eliminated.
 204:App/WS2812B/ws2812b.cpp ****     uint32_t RGB = (
 368              		.loc 1 204 5 view .LVU73
 205:App/WS2812B/ws2812b.cpp ****         (uint32_t)red << 16 |
 206:App/WS2812B/ws2812b.cpp ****         (uint32_t)green << 8 |
 369              		.loc 1 206 25 is_stmt 0 view .LVU74
 370 0000 1202     		lsls	r2, r2, #8
 371              	.LVL25:
 205:App/WS2812B/ws2812b.cpp ****         (uint32_t)red << 16 |
 372              		.loc 1 205 29 view .LVU75
 373 0002 42EA0142 		orr	r2, r2, r1, lsl #16
 374              	.LVL26:
ARM GAS  C:\Users\DARSTE~1\AppData\Local\Temp\ccuC9E63.s 			page 11


 207:App/WS2812B/ws2812b.cpp ****         (uint32_t)blue << 0
 208:App/WS2812B/ws2812b.cpp ****     );
 209:App/WS2812B/ws2812b.cpp ****     return RGB;
 375              		.loc 1 209 5 is_stmt 1 view .LVU76
 210:App/WS2812B/ws2812b.cpp **** }
 376              		.loc 1 210 1 is_stmt 0 view .LVU77
 377 0006 42EA0300 		orr	r0, r2, r3
 378              	.LVL27:
 379              		.loc 1 210 1 view .LVU78
 380 000a 7047     		bx	lr
 381              		.cfi_endproc
 382              	.LFE88:
 383              		.cantunwind
 384              		.fnend
 386              		.global	__aeabi_ui2f
 387              		.global	__aeabi_fsub
 388              		.global	__aeabi_i2f
 389              		.global	__aeabi_fdiv
 390              		.global	__aeabi_fmul
 391              		.global	__aeabi_f2uiz
 392              		.global	__aeabi_fadd
 393              		.section	.text._ZN7WS2812B15gradient2ColorsEmtmt,"ax",%progbits
 394              		.align	1
 395              		.global	_ZN7WS2812B15gradient2ColorsEmtmt
 396              		.syntax unified
 397              		.thumb
 398              		.thumb_func
 400              	_ZN7WS2812B15gradient2ColorsEmtmt:
 401              		.fnstart
 402              	.LVL28:
 403              	.LFB79:
  50:App/WS2812B/ws2812b.cpp ****     float stepRed = (float)WS2812B::extractRed(startColor) - (float)WS2812B::extractRed(endColor);
 404              		.loc 1 50 1 is_stmt 1 view -0
 405              		.cfi_startproc
 406              		@ args = 4, pretend = 0, frame = 48
 407              		@ frame_needed = 0, uses_anonymous_args = 0
  50:App/WS2812B/ws2812b.cpp ****     float stepRed = (float)WS2812B::extractRed(startColor) - (float)WS2812B::extractRed(endColor);
 408              		.loc 1 50 1 is_stmt 0 view .LVU80
 409 0000 2DE9F04F 		push	{r4, r5, r6, r7, r8, r9, r10, fp, lr}
 410              	.LCFI3:
 411              		.cfi_def_cfa_offset 36
 412              		.cfi_offset 4, -36
 413              		.cfi_offset 5, -32
 414              		.cfi_offset 6, -28
 415              		.cfi_offset 7, -24
 416              		.cfi_offset 8, -20
 417              		.cfi_offset 9, -16
 418              		.cfi_offset 10, -12
 419              		.cfi_offset 11, -8
 420              		.cfi_offset 14, -4
 421 0004 8DB0     		sub	sp, sp, #52
 422              	.LCFI4:
 423              		.cfi_def_cfa_offset 88
 424 0006 8346     		mov	fp, r0
 425 0008 0E46     		mov	r6, r1
 426 000a 9146     		mov	r9, r2
 427 000c 1D46     		mov	r5, r3
ARM GAS  C:\Users\DARSTE~1\AppData\Local\Temp\ccuC9E63.s 			page 12


 428 000e BDF85840 		ldrh	r4, [sp, #88]
  51:App/WS2812B/ws2812b.cpp ****     float stepGreen = (float)WS2812B::extractGreen(startColor) - (float)WS2812B::extractGreen(endCo
 429              		.loc 1 51 5 is_stmt 1 view .LVU81
  51:App/WS2812B/ws2812b.cpp ****     float stepGreen = (float)WS2812B::extractGreen(startColor) - (float)WS2812B::extractGreen(endCo
 430              		.loc 1 51 47 is_stmt 0 view .LVU82
 431 0012 FFF7FEFF 		bl	_ZN7WS2812B10extractRedEm
 432              	.LVL29:
  51:App/WS2812B/ws2812b.cpp ****     float stepGreen = (float)WS2812B::extractGreen(startColor) - (float)WS2812B::extractGreen(endCo
 433              		.loc 1 51 47 view .LVU83
 434 0016 0390     		str	r0, [sp, #12]
  51:App/WS2812B/ws2812b.cpp ****     float stepGreen = (float)WS2812B::extractGreen(startColor) - (float)WS2812B::extractGreen(endCo
 435              		.loc 1 51 21 view .LVU84
 436 0018 FFF7FEFF 		bl	__aeabi_ui2f
 437              	.LVL30:
 438 001c 0746     		mov	r7, r0
  51:App/WS2812B/ws2812b.cpp ****     float stepGreen = (float)WS2812B::extractGreen(startColor) - (float)WS2812B::extractGreen(endCo
 439              		.loc 1 51 88 view .LVU85
 440 001e 2946     		mov	r1, r5
 441 0020 5846     		mov	r0, fp
 442 0022 FFF7FEFF 		bl	_ZN7WS2812B10extractRedEm
 443              	.LVL31:
 444 0026 0490     		str	r0, [sp, #16]
  51:App/WS2812B/ws2812b.cpp ****     float stepGreen = (float)WS2812B::extractGreen(startColor) - (float)WS2812B::extractGreen(endCo
 445              		.loc 1 51 62 view .LVU86
 446 0028 FFF7FEFF 		bl	__aeabi_ui2f
 447              	.LVL32:
 448 002c 0146     		mov	r1, r0
  51:App/WS2812B/ws2812b.cpp ****     float stepGreen = (float)WS2812B::extractGreen(startColor) - (float)WS2812B::extractGreen(endCo
 449              		.loc 1 51 97 view .LVU87
 450 002e 3846     		mov	r0, r7
 451 0030 FFF7FEFF 		bl	__aeabi_fsub
 452              	.LVL33:
 453 0034 8046     		mov	r8, r0
 454              	.LVL34:
  52:App/WS2812B/ws2812b.cpp ****     float stepBlue = (float)WS2812B::extractBlue(startColor) - (float)WS2812B::extractBlue(endColor
 455              		.loc 1 52 5 is_stmt 1 view .LVU88
  52:App/WS2812B/ws2812b.cpp ****     float stepBlue = (float)WS2812B::extractBlue(startColor) - (float)WS2812B::extractBlue(endColor
 456              		.loc 1 52 51 is_stmt 0 view .LVU89
 457 0036 3146     		mov	r1, r6
 458 0038 5846     		mov	r0, fp
 459              	.LVL35:
  52:App/WS2812B/ws2812b.cpp ****     float stepBlue = (float)WS2812B::extractBlue(startColor) - (float)WS2812B::extractBlue(endColor
 460              		.loc 1 52 51 view .LVU90
 461 003a FFF7FEFF 		bl	_ZN7WS2812B12extractGreenEm
 462              	.LVL36:
 463 003e 0590     		str	r0, [sp, #20]
  52:App/WS2812B/ws2812b.cpp ****     float stepBlue = (float)WS2812B::extractBlue(startColor) - (float)WS2812B::extractBlue(endColor
 464              		.loc 1 52 23 view .LVU91
 465 0040 FFF7FEFF 		bl	__aeabi_ui2f
 466              	.LVL37:
 467 0044 0746     		mov	r7, r0
  52:App/WS2812B/ws2812b.cpp ****     float stepBlue = (float)WS2812B::extractBlue(startColor) - (float)WS2812B::extractBlue(endColor
 468              		.loc 1 52 94 view .LVU92
 469 0046 2946     		mov	r1, r5
 470 0048 5846     		mov	r0, fp
 471 004a FFF7FEFF 		bl	_ZN7WS2812B12extractGreenEm
 472              	.LVL38:
ARM GAS  C:\Users\DARSTE~1\AppData\Local\Temp\ccuC9E63.s 			page 13


 473 004e 0690     		str	r0, [sp, #24]
  52:App/WS2812B/ws2812b.cpp ****     float stepBlue = (float)WS2812B::extractBlue(startColor) - (float)WS2812B::extractBlue(endColor
 474              		.loc 1 52 66 view .LVU93
 475 0050 FFF7FEFF 		bl	__aeabi_ui2f
 476              	.LVL39:
 477 0054 0146     		mov	r1, r0
  52:App/WS2812B/ws2812b.cpp ****     float stepBlue = (float)WS2812B::extractBlue(startColor) - (float)WS2812B::extractBlue(endColor
 478              		.loc 1 52 103 view .LVU94
 479 0056 3846     		mov	r0, r7
 480 0058 FFF7FEFF 		bl	__aeabi_fsub
 481              	.LVL40:
 482 005c 0746     		mov	r7, r0
 483              	.LVL41:
  53:App/WS2812B/ws2812b.cpp ****     stepRed = stepRed / (float)(end - start);
 484              		.loc 1 53 5 is_stmt 1 view .LVU95
  53:App/WS2812B/ws2812b.cpp ****     stepRed = stepRed / (float)(end - start);
 485              		.loc 1 53 49 is_stmt 0 view .LVU96
 486 005e 3146     		mov	r1, r6
 487 0060 5846     		mov	r0, fp
 488              	.LVL42:
  53:App/WS2812B/ws2812b.cpp ****     stepRed = stepRed / (float)(end - start);
 489              		.loc 1 53 49 view .LVU97
 490 0062 FFF7FEFF 		bl	_ZN7WS2812B11extractBlueEm
 491              	.LVL43:
 492 0066 0790     		str	r0, [sp, #28]
  53:App/WS2812B/ws2812b.cpp ****     stepRed = stepRed / (float)(end - start);
 493              		.loc 1 53 22 view .LVU98
 494 0068 FFF7FEFF 		bl	__aeabi_ui2f
 495              	.LVL44:
 496 006c 0646     		mov	r6, r0
 497              	.LVL45:
  53:App/WS2812B/ws2812b.cpp ****     stepRed = stepRed / (float)(end - start);
 498              		.loc 1 53 91 view .LVU99
 499 006e 2946     		mov	r1, r5
 500 0070 5846     		mov	r0, fp
 501 0072 FFF7FEFF 		bl	_ZN7WS2812B11extractBlueEm
 502              	.LVL46:
 503 0076 0890     		str	r0, [sp, #32]
  53:App/WS2812B/ws2812b.cpp ****     stepRed = stepRed / (float)(end - start);
 504              		.loc 1 53 64 view .LVU100
 505 0078 FFF7FEFF 		bl	__aeabi_ui2f
 506              	.LVL47:
 507 007c 0146     		mov	r1, r0
  53:App/WS2812B/ws2812b.cpp ****     stepRed = stepRed / (float)(end - start);
 508              		.loc 1 53 100 view .LVU101
 509 007e 3046     		mov	r0, r6
 510 0080 FFF7FEFF 		bl	__aeabi_fsub
 511              	.LVL48:
 512 0084 0646     		mov	r6, r0
 513              	.LVL49:
  54:App/WS2812B/ws2812b.cpp ****     stepGreen = stepGreen / (float)(end - start);
 514              		.loc 1 54 5 is_stmt 1 view .LVU102
  54:App/WS2812B/ws2812b.cpp ****     stepGreen = stepGreen / (float)(end - start);
 515              		.loc 1 54 25 is_stmt 0 view .LVU103
 516 0086 A4EB0900 		sub	r0, r4, r9
 517              	.LVL50:
  54:App/WS2812B/ws2812b.cpp ****     stepGreen = stepGreen / (float)(end - start);
ARM GAS  C:\Users\DARSTE~1\AppData\Local\Temp\ccuC9E63.s 			page 14


 518              		.loc 1 54 25 view .LVU104
 519 008a FFF7FEFF 		bl	__aeabi_i2f
 520              	.LVL51:
 521 008e 0546     		mov	r5, r0
 522              	.LVL52:
  54:App/WS2812B/ws2812b.cpp ****     stepGreen = stepGreen / (float)(end - start);
 523              		.loc 1 54 13 view .LVU105
 524 0090 0146     		mov	r1, r0
 525 0092 4046     		mov	r0, r8
 526 0094 FFF7FEFF 		bl	__aeabi_fdiv
 527              	.LVL53:
 528 0098 0990     		str	r0, [sp, #36]	@ float
 529              	.LVL54:
  55:App/WS2812B/ws2812b.cpp ****     stepBlue = stepBlue / (float)(end - start);
 530              		.loc 1 55 5 is_stmt 1 view .LVU106
  55:App/WS2812B/ws2812b.cpp ****     stepBlue = stepBlue / (float)(end - start);
 531              		.loc 1 55 15 is_stmt 0 view .LVU107
 532 009a 2946     		mov	r1, r5
 533 009c 3846     		mov	r0, r7
 534              	.LVL55:
  55:App/WS2812B/ws2812b.cpp ****     stepBlue = stepBlue / (float)(end - start);
 535              		.loc 1 55 15 view .LVU108
 536 009e FFF7FEFF 		bl	__aeabi_fdiv
 537              	.LVL56:
 538 00a2 0A90     		str	r0, [sp, #40]	@ float
 539              	.LVL57:
  56:App/WS2812B/ws2812b.cpp **** 
 540              		.loc 1 56 5 is_stmt 1 view .LVU109
  56:App/WS2812B/ws2812b.cpp **** 
 541              		.loc 1 56 14 is_stmt 0 view .LVU110
 542 00a4 2946     		mov	r1, r5
 543 00a6 3046     		mov	r0, r6
 544              	.LVL58:
  56:App/WS2812B/ws2812b.cpp **** 
 545              		.loc 1 56 14 view .LVU111
 546 00a8 FFF7FEFF 		bl	__aeabi_fdiv
 547              	.LVL59:
 548 00ac 0B90     		str	r0, [sp, #44]	@ float
 549              	.LVL60:
  58:App/WS2812B/ws2812b.cpp ****     while (start <= end)
 550              		.loc 1 58 5 is_stmt 1 view .LVU112
  59:App/WS2812B/ws2812b.cpp ****     {
 551              		.loc 1 59 5 view .LVU113
  58:App/WS2812B/ws2812b.cpp ****     while (start <= end)
 552              		.loc 1 58 14 is_stmt 0 view .LVU114
 553 00ae 4FF0000A 		mov	r10, #0
  59:App/WS2812B/ws2812b.cpp ****     {
 554              		.loc 1 59 5 view .LVU115
 555 00b2 6EE0     		b	.L18
 556              	.LVL61:
 557              	.L19:
  61:App/WS2812B/ws2812b.cpp ****             WS2812B::extractRed(startColor) - colorIterate * stepRed,
 558              		.loc 1 61 9 is_stmt 1 view .LVU116
  62:App/WS2812B/ws2812b.cpp ****             WS2812B::extractGreen(startColor) - colorIterate * stepGreen,
 559              		.loc 1 62 60 is_stmt 0 view .LVU117
 560 00b4 5046     		mov	r0, r10
 561 00b6 FFF7FEFF 		bl	__aeabi_i2f
ARM GAS  C:\Users\DARSTE~1\AppData\Local\Temp\ccuC9E63.s 			page 15


 562              	.LVL62:
 563 00ba 0546     		mov	r5, r0
 564 00bc 0999     		ldr	r1, [sp, #36]	@ float
 565 00be FFF7FEFF 		bl	__aeabi_fmul
 566              	.LVL63:
 567 00c2 0746     		mov	r7, r0
  62:App/WS2812B/ws2812b.cpp ****             WS2812B::extractGreen(startColor) - colorIterate * stepGreen,
 568              		.loc 1 62 45 view .LVU118
 569 00c4 0398     		ldr	r0, [sp, #12]
 570 00c6 FFF7FEFF 		bl	__aeabi_i2f
 571              	.LVL64:
 572 00ca 3946     		mov	r1, r7
 573 00cc FFF7FEFF 		bl	__aeabi_fsub
 574              	.LVL65:
 575 00d0 0090     		str	r0, [sp]	@ float
  63:App/WS2812B/ws2812b.cpp ****             WS2812B::extractBlue(startColor) - colorIterate * stepBlue
 576              		.loc 1 63 62 view .LVU119
 577 00d2 0A99     		ldr	r1, [sp, #40]	@ float
 578 00d4 2846     		mov	r0, r5
 579 00d6 FFF7FEFF 		bl	__aeabi_fmul
 580              	.LVL66:
 581 00da 0646     		mov	r6, r0
  63:App/WS2812B/ws2812b.cpp ****             WS2812B::extractBlue(startColor) - colorIterate * stepBlue
 582              		.loc 1 63 47 view .LVU120
 583 00dc 0598     		ldr	r0, [sp, #20]
 584 00de FFF7FEFF 		bl	__aeabi_i2f
 585              	.LVL67:
 586 00e2 0196     		str	r6, [sp, #4]	@ float
 587 00e4 3146     		mov	r1, r6
 588 00e6 FFF7FEFF 		bl	__aeabi_fsub
 589              	.LVL68:
 590 00ea 8046     		mov	r8, r0
  64:App/WS2812B/ws2812b.cpp ****         );
 591              		.loc 1 64 61 view .LVU121
 592 00ec 0B99     		ldr	r1, [sp, #44]	@ float
 593 00ee 2846     		mov	r0, r5
 594 00f0 FFF7FEFF 		bl	__aeabi_fmul
 595              	.LVL69:
 596 00f4 0546     		mov	r5, r0
  64:App/WS2812B/ws2812b.cpp ****         );
 597              		.loc 1 64 46 view .LVU122
 598 00f6 0798     		ldr	r0, [sp, #28]
 599 00f8 FFF7FEFF 		bl	__aeabi_i2f
 600              	.LVL70:
 601 00fc 0295     		str	r5, [sp, #8]	@ float
 602 00fe 2946     		mov	r1, r5
 603 0100 FFF7FEFF 		bl	__aeabi_fsub
 604              	.LVL71:
  61:App/WS2812B/ws2812b.cpp ****             WS2812B::extractRed(startColor) - colorIterate * stepRed,
 605              		.loc 1 61 9 view .LVU123
 606 0104 DBF81C50 		ldr	r5, [fp, #28]
  61:App/WS2812B/ws2812b.cpp ****             WS2812B::extractRed(startColor) - colorIterate * stepRed,
 607              		.loc 1 61 54 view .LVU124
 608 0108 FFF7FEFF 		bl	__aeabi_f2uiz
 609              	.LVL72:
 610 010c C6B2     		uxtb	r6, r0
 611 010e 4046     		mov	r0, r8
ARM GAS  C:\Users\DARSTE~1\AppData\Local\Temp\ccuC9E63.s 			page 16


 612 0110 FFF7FEFF 		bl	__aeabi_f2uiz
 613              	.LVL73:
 614 0114 5FFA80F8 		uxtb	r8, r0
 615 0118 0098     		ldr	r0, [sp]	@ float
 616 011a FFF7FEFF 		bl	__aeabi_f2uiz
 617              	.LVL74:
 618 011e 3346     		mov	r3, r6
 619 0120 4246     		mov	r2, r8
 620 0122 C1B2     		uxtb	r1, r0
 621 0124 5846     		mov	r0, fp
 622 0126 FFF7FEFF 		bl	_ZN7WS2812B10combineRGBEhhh
 623              	.LVL75:
  61:App/WS2812B/ws2812b.cpp ****             WS2812B::extractRed(startColor) - colorIterate * stepRed,
 624              		.loc 1 61 33 view .LVU125
 625 012a 45F82900 		str	r0, [r5, r9, lsl #2]
  66:App/WS2812B/ws2812b.cpp ****             WS2812B::extractRed(endColor) + colorIterate * stepRed,
 626              		.loc 1 66 9 is_stmt 1 view .LVU126
  67:App/WS2812B/ws2812b.cpp ****             WS2812B::extractGreen(endColor) + colorIterate * stepGreen,
 627              		.loc 1 67 43 is_stmt 0 view .LVU127
 628 012e 0498     		ldr	r0, [sp, #16]
 629 0130 FFF7FEFF 		bl	__aeabi_i2f
 630              	.LVL76:
 631 0134 3946     		mov	r1, r7
 632 0136 FFF7FEFF 		bl	__aeabi_fadd
 633              	.LVL77:
 634 013a 0746     		mov	r7, r0
  68:App/WS2812B/ws2812b.cpp ****             WS2812B::extractBlue(endColor) + colorIterate * stepBlue
 635              		.loc 1 68 45 view .LVU128
 636 013c 0698     		ldr	r0, [sp, #24]
 637 013e FFF7FEFF 		bl	__aeabi_i2f
 638              	.LVL78:
 639 0142 0199     		ldr	r1, [sp, #4]	@ float
 640 0144 FFF7FEFF 		bl	__aeabi_fadd
 641              	.LVL79:
 642 0148 0646     		mov	r6, r0
  69:App/WS2812B/ws2812b.cpp ****         );
 643              		.loc 1 69 44 view .LVU129
 644 014a 0898     		ldr	r0, [sp, #32]
 645 014c FFF7FEFF 		bl	__aeabi_i2f
 646              	.LVL80:
 647 0150 0299     		ldr	r1, [sp, #8]	@ float
 648 0152 FFF7FEFF 		bl	__aeabi_fadd
 649              	.LVL81:
  66:App/WS2812B/ws2812b.cpp ****             WS2812B::extractRed(endColor) + colorIterate * stepRed,
 650              		.loc 1 66 9 view .LVU130
 651 0156 DBF81C80 		ldr	r8, [fp, #28]
  66:App/WS2812B/ws2812b.cpp ****             WS2812B::extractRed(endColor) + colorIterate * stepRed,
 652              		.loc 1 66 52 view .LVU131
 653 015a FFF7FEFF 		bl	__aeabi_f2uiz
 654              	.LVL82:
 655 015e C5B2     		uxtb	r5, r0
 656 0160 3046     		mov	r0, r6
 657 0162 FFF7FEFF 		bl	__aeabi_f2uiz
 658              	.LVL83:
 659 0166 C6B2     		uxtb	r6, r0
 660 0168 3846     		mov	r0, r7
 661 016a FFF7FEFF 		bl	__aeabi_f2uiz
ARM GAS  C:\Users\DARSTE~1\AppData\Local\Temp\ccuC9E63.s 			page 17


 662              	.LVL84:
 663 016e 2B46     		mov	r3, r5
 664 0170 3246     		mov	r2, r6
 665 0172 C1B2     		uxtb	r1, r0
 666 0174 5846     		mov	r0, fp
 667 0176 FFF7FEFF 		bl	_ZN7WS2812B10combineRGBEhhh
 668              	.LVL85:
  66:App/WS2812B/ws2812b.cpp ****             WS2812B::extractRed(endColor) + colorIterate * stepRed,
 669              		.loc 1 66 31 view .LVU132
 670 017a 48F82400 		str	r0, [r8, r4, lsl #2]
  71:App/WS2812B/ws2812b.cpp ****     }
 671              		.loc 1 71 9 is_stmt 1 view .LVU133
  71:App/WS2812B/ws2812b.cpp ****     }
 672              		.loc 1 71 21 is_stmt 0 view .LVU134
 673 017e 0AF10103 		add	r3, r10, #1
 674 0182 1FFA83FA 		uxth	r10, r3
 675              	.LVL86:
  71:App/WS2812B/ws2812b.cpp ****     }
 676              		.loc 1 71 25 is_stmt 1 view .LVU135
  71:App/WS2812B/ws2812b.cpp ****     }
 677              		.loc 1 71 30 is_stmt 0 view .LVU136
 678 0186 09F10109 		add	r9, r9, #1
 679              	.LVL87:
  71:App/WS2812B/ws2812b.cpp ****     }
 680              		.loc 1 71 30 view .LVU137
 681 018a 1FFA89F9 		uxth	r9, r9
 682              	.LVL88:
  71:App/WS2812B/ws2812b.cpp ****     }
 683              		.loc 1 71 34 is_stmt 1 view .LVU138
  71:App/WS2812B/ws2812b.cpp ****     }
 684              		.loc 1 71 37 is_stmt 0 view .LVU139
 685 018e 013C     		subs	r4, r4, #1
 686              	.LVL89:
  71:App/WS2812B/ws2812b.cpp ****     }
 687              		.loc 1 71 37 view .LVU140
 688 0190 A4B2     		uxth	r4, r4
 689              	.LVL90:
 690              	.L18:
  59:App/WS2812B/ws2812b.cpp ****     {
 691              		.loc 1 59 18 is_stmt 1 view .LVU141
 692 0192 A145     		cmp	r9, r4
 693 0194 8ED9     		bls	.L19
  73:App/WS2812B/ws2812b.cpp **** 
 694              		.loc 1 73 1 is_stmt 0 view .LVU142
 695 0196 0DB0     		add	sp, sp, #52
 696              	.LCFI5:
 697              		.cfi_def_cfa_offset 36
 698              		@ sp needed
 699 0198 BDE8F08F 		pop	{r4, r5, r6, r7, r8, r9, r10, fp, pc}
  73:App/WS2812B/ws2812b.cpp **** 
 700              		.loc 1 73 1 view .LVU143
 701              		.cfi_endproc
 702              	.LFE79:
 703              		.cantunwind
 704              		.fnend
 706              		.section	.text._ZN7WS2812B5toGRBEm,"ax",%progbits
 707              		.align	1
ARM GAS  C:\Users\DARSTE~1\AppData\Local\Temp\ccuC9E63.s 			page 18


 708              		.global	_ZN7WS2812B5toGRBEm
 709              		.syntax unified
 710              		.thumb
 711              		.thumb_func
 713              	_ZN7WS2812B5toGRBEm:
 714              		.fnstart
 715              	.LVL91:
 716              	.LFB89:
 211:App/WS2812B/ws2812b.cpp **** uint32_t WS2812B::toGRB(uint32_t RGB)
 212:App/WS2812B/ws2812b.cpp **** {
 717              		.loc 1 212 1 is_stmt 1 view -0
 718              		.cfi_startproc
 719              		@ args = 0, pretend = 0, frame = 0
 720              		@ frame_needed = 0, uses_anonymous_args = 0
 721              		.loc 1 212 1 is_stmt 0 view .LVU145
 722 0000 70B5     		push	{r4, r5, r6, lr}
 723              	.LCFI6:
 724              		.cfi_def_cfa_offset 16
 725              		.cfi_offset 4, -16
 726              		.cfi_offset 5, -12
 727              		.cfi_offset 6, -8
 728              		.cfi_offset 14, -4
 729 0002 0546     		mov	r5, r0
 730 0004 0E46     		mov	r6, r1
 213:App/WS2812B/ws2812b.cpp ****     uint32_t GRB = (
 731              		.loc 1 213 5 is_stmt 1 view .LVU146
 214:App/WS2812B/ws2812b.cpp ****         (uint32_t)(WS2812B::extractGreen(RGB) << 16) |
 732              		.loc 1 214 41 is_stmt 0 view .LVU147
 733 0006 FFF7FEFF 		bl	_ZN7WS2812B12extractGreenEm
 734              	.LVL92:
 735              		.loc 1 214 9 view .LVU148
 736 000a 0404     		lsls	r4, r0, #16
 215:App/WS2812B/ws2812b.cpp ****         (uint32_t)(WS2812B::extractRed(RGB) << 8) |
 737              		.loc 1 215 39 view .LVU149
 738 000c 3146     		mov	r1, r6
 739 000e 2846     		mov	r0, r5
 740 0010 FFF7FEFF 		bl	_ZN7WS2812B10extractRedEm
 741              	.LVL93:
 214:App/WS2812B/ws2812b.cpp ****         (uint32_t)(WS2812B::extractGreen(RGB) << 16) |
 742              		.loc 1 214 54 view .LVU150
 743 0014 44EA0024 		orr	r4, r4, r0, lsl #8
 216:App/WS2812B/ws2812b.cpp ****         (uint32_t)(WS2812B::extractBlue(RGB) << 0)
 744              		.loc 1 216 40 view .LVU151
 745 0018 3146     		mov	r1, r6
 746 001a 2846     		mov	r0, r5
 747 001c FFF7FEFF 		bl	_ZN7WS2812B11extractBlueEm
 748              	.LVL94:
 217:App/WS2812B/ws2812b.cpp ****     );
 218:App/WS2812B/ws2812b.cpp ****     return GRB;
 749              		.loc 1 218 5 is_stmt 1 view .LVU152
 219:App/WS2812B/ws2812b.cpp **** }
 750              		.loc 1 219 1 is_stmt 0 view .LVU153
 751 0020 2043     		orrs	r0, r0, r4
 752              	.LVL95:
 753              		.loc 1 219 1 view .LVU154
 754 0022 70BD     		pop	{r4, r5, r6, pc}
 755              		.loc 1 219 1 view .LVU155
ARM GAS  C:\Users\DARSTE~1\AppData\Local\Temp\ccuC9E63.s 			page 19


 756              		.cfi_endproc
 757              	.LFE89:
 758              		.cantunwind
 759              		.fnend
 761              		.section	.text._ZN7WS2812B12updateBufferEv,"ax",%progbits
 762              		.align	1
 763              		.global	_ZN7WS2812B12updateBufferEv
 764              		.syntax unified
 765              		.thumb
 766              		.thumb_func
 768              	_ZN7WS2812B12updateBufferEv:
 769              		.fnstart
 770              	.LVL96:
 771              	.LFB90:
 220:App/WS2812B/ws2812b.cpp **** 
 221:App/WS2812B/ws2812b.cpp **** void WS2812B::updateBuffer()
 222:App/WS2812B/ws2812b.cpp **** {
 772              		.loc 1 222 1 is_stmt 1 view -0
 773              		.cfi_startproc
 774              		@ args = 0, pretend = 0, frame = 0
 775              		@ frame_needed = 0, uses_anonymous_args = 0
 776              		.loc 1 222 1 is_stmt 0 view .LVU157
 777 0000 F8B5     		push	{r3, r4, r5, r6, r7, lr}
 778              	.LCFI7:
 779              		.cfi_def_cfa_offset 24
 780              		.cfi_offset 3, -24
 781              		.cfi_offset 4, -20
 782              		.cfi_offset 5, -16
 783              		.cfi_offset 6, -12
 784              		.cfi_offset 7, -8
 785              		.cfi_offset 14, -4
 786 0002 0546     		mov	r5, r0
 223:App/WS2812B/ws2812b.cpp ****     uint32_t bufferIndex = 0;
 787              		.loc 1 223 5 is_stmt 1 view .LVU158
 788              	.LVL97:
 224:App/WS2812B/ws2812b.cpp ****     for (uint16_t ledIndex = 0; ledIndex < _ledsCount; ledIndex++)
 789              		.loc 1 224 5 view .LVU159
 790              	.LBB4:
 791              		.loc 1 224 19 is_stmt 0 view .LVU160
 792 0004 0027     		movs	r7, #0
 793              	.LBE4:
 223:App/WS2812B/ws2812b.cpp ****     uint32_t bufferIndex = 0;
 794              		.loc 1 223 14 view .LVU161
 795 0006 3E46     		mov	r6, r7
 796              	.LBB7:
 797              		.loc 1 224 5 view .LVU162
 798 0008 16E0     		b	.L24
 799              	.LVL98:
 800              	.L25:
 801              	.LBB5:
 225:App/WS2812B/ws2812b.cpp ****         for (int8_t bitIndex = 23; bitIndex >= 0; bitIndex--)
 226:App/WS2812B/ws2812b.cpp ****         {
 227:App/WS2812B/ws2812b.cpp ****             _buffer[bufferIndex] = ((WS2812B::toGRB(_colorData[ledIndex]) >> bitIndex) & 0b1) ? _BI
 802              		.loc 1 227 95 discriminator 2 view .LVU163
 803 000a 6A69     		ldr	r2, [r5, #20]
 804              	.L26:
 805              		.loc 1 227 13 discriminator 4 view .LVU164
ARM GAS  C:\Users\DARSTE~1\AppData\Local\Temp\ccuC9E63.s 			page 20


 806 000c 2B6B     		ldr	r3, [r5, #48]
 807              		.loc 1 227 34 discriminator 4 view .LVU165
 808 000e 43F82620 		str	r2, [r3, r6, lsl #2]
 228:App/WS2812B/ws2812b.cpp ****             bufferIndex++;
 809              		.loc 1 228 13 is_stmt 1 discriminator 4 view .LVU166
 810              		.loc 1 228 24 is_stmt 0 discriminator 4 view .LVU167
 811 0012 0136     		adds	r6, r6, #1
 812              	.LVL99:
 225:App/WS2812B/ws2812b.cpp ****         for (int8_t bitIndex = 23; bitIndex >= 0; bitIndex--)
 813              		.loc 1 225 9 is_stmt 1 discriminator 4 view .LVU168
 814 0014 013C     		subs	r4, r4, #1
 815              	.LVL100:
 225:App/WS2812B/ws2812b.cpp ****         for (int8_t bitIndex = 23; bitIndex >= 0; bitIndex--)
 816              		.loc 1 225 9 is_stmt 0 discriminator 4 view .LVU169
 817 0016 64B2     		sxtb	r4, r4
 818              	.LVL101:
 819              	.L28:
 225:App/WS2812B/ws2812b.cpp ****         for (int8_t bitIndex = 23; bitIndex >= 0; bitIndex--)
 820              		.loc 1 225 45 is_stmt 1 discriminator 2 view .LVU170
 821 0018 002C     		cmp	r4, #0
 822 001a 0BDB     		blt	.L33
 227:App/WS2812B/ws2812b.cpp ****             bufferIndex++;
 823              		.loc 1 227 13 view .LVU171
 227:App/WS2812B/ws2812b.cpp ****             bufferIndex++;
 824              		.loc 1 227 53 is_stmt 0 view .LVU172
 825 001c AB69     		ldr	r3, [r5, #24]
 227:App/WS2812B/ws2812b.cpp ****             bufferIndex++;
 826              		.loc 1 227 52 view .LVU173
 827 001e 53F82710 		ldr	r1, [r3, r7, lsl #2]
 828 0022 2846     		mov	r0, r5
 829 0024 FFF7FEFF 		bl	_ZN7WS2812B5toGRBEm
 830              	.LVL102:
 227:App/WS2812B/ws2812b.cpp ****             bufferIndex++;
 831              		.loc 1 227 75 view .LVU174
 832 0028 E040     		lsrs	r0, r0, r4
 227:App/WS2812B/ws2812b.cpp ****             bufferIndex++;
 833              		.loc 1 227 95 view .LVU175
 834 002a 10F0010F 		tst	r0, #1
 835 002e ECD0     		beq	.L25
 227:App/WS2812B/ws2812b.cpp ****             bufferIndex++;
 836              		.loc 1 227 95 discriminator 1 view .LVU176
 837 0030 2A69     		ldr	r2, [r5, #16]
 838 0032 EBE7     		b	.L26
 839              	.L33:
 227:App/WS2812B/ws2812b.cpp ****             bufferIndex++;
 840              		.loc 1 227 95 discriminator 1 view .LVU177
 841              	.LBE5:
 224:App/WS2812B/ws2812b.cpp ****         for (int8_t bitIndex = 23; bitIndex >= 0; bitIndex--)
 842              		.loc 1 224 5 is_stmt 1 discriminator 2 view .LVU178
 843 0034 0137     		adds	r7, r7, #1
 844              	.LVL103:
 224:App/WS2812B/ws2812b.cpp ****         for (int8_t bitIndex = 23; bitIndex >= 0; bitIndex--)
 845              		.loc 1 224 5 is_stmt 0 discriminator 2 view .LVU179
 846 0036 BFB2     		uxth	r7, r7
 847              	.LVL104:
 848              	.L24:
 224:App/WS2812B/ws2812b.cpp ****         for (int8_t bitIndex = 23; bitIndex >= 0; bitIndex--)
ARM GAS  C:\Users\DARSTE~1\AppData\Local\Temp\ccuC9E63.s 			page 21


 849              		.loc 1 224 42 is_stmt 1 discriminator 1 view .LVU180
 224:App/WS2812B/ws2812b.cpp ****         for (int8_t bitIndex = 23; bitIndex >= 0; bitIndex--)
 850              		.loc 1 224 44 is_stmt 0 discriminator 1 view .LVU181
 851 0038 2B89     		ldrh	r3, [r5, #8]
 224:App/WS2812B/ws2812b.cpp ****         for (int8_t bitIndex = 23; bitIndex >= 0; bitIndex--)
 852              		.loc 1 224 42 discriminator 1 view .LVU182
 853 003a BB42     		cmp	r3, r7
 854 003c 06D9     		bls	.L29
 855              	.LBB6:
 225:App/WS2812B/ws2812b.cpp ****         {
 856              		.loc 1 225 21 view .LVU183
 857 003e 1724     		movs	r4, #23
 858 0040 EAE7     		b	.L28
 859              	.L30:
 225:App/WS2812B/ws2812b.cpp ****         {
 860              		.loc 1 225 21 view .LVU184
 861              	.LBE6:
 862              	.LBE7:
 229:App/WS2812B/ws2812b.cpp ****         }
 230:App/WS2812B/ws2812b.cpp ****     for (bufferIndex; bufferIndex < _ledsCount * 24 + WS2812B_RESET_CODE_PADDING; bufferIndex++)
 231:App/WS2812B/ws2812b.cpp ****         _buffer[bufferIndex] = 0;
 863              		.loc 1 231 9 is_stmt 1 discriminator 2 view .LVU185
 864 0042 2B6B     		ldr	r3, [r5, #48]
 865              		.loc 1 231 30 is_stmt 0 discriminator 2 view .LVU186
 866 0044 0022     		movs	r2, #0
 867 0046 43F82620 		str	r2, [r3, r6, lsl #2]
 230:App/WS2812B/ws2812b.cpp ****         _buffer[bufferIndex] = 0;
 868              		.loc 1 230 5 is_stmt 1 discriminator 2 view .LVU187
 869 004a 0136     		adds	r6, r6, #1
 870              	.LVL105:
 871              	.L29:
 230:App/WS2812B/ws2812b.cpp ****         _buffer[bufferIndex] = 0;
 872              		.loc 1 230 35 discriminator 1 view .LVU188
 230:App/WS2812B/ws2812b.cpp ****         _buffer[bufferIndex] = 0;
 873              		.loc 1 230 37 is_stmt 0 discriminator 1 view .LVU189
 874 004c 2B89     		ldrh	r3, [r5, #8]
 230:App/WS2812B/ws2812b.cpp ****         _buffer[bufferIndex] = 0;
 875              		.loc 1 230 48 discriminator 1 view .LVU190
 876 004e 03EB4303 		add	r3, r3, r3, lsl #1
 877 0052 DB00     		lsls	r3, r3, #3
 230:App/WS2812B/ws2812b.cpp ****         _buffer[bufferIndex] = 0;
 878              		.loc 1 230 53 discriminator 1 view .LVU191
 879 0054 2833     		adds	r3, r3, #40
 230:App/WS2812B/ws2812b.cpp ****         _buffer[bufferIndex] = 0;
 880              		.loc 1 230 35 discriminator 1 view .LVU192
 881 0056 B342     		cmp	r3, r6
 882 0058 F3D8     		bhi	.L30
 232:App/WS2812B/ws2812b.cpp **** }
 883              		.loc 1 232 1 view .LVU193
 884 005a F8BD     		pop	{r3, r4, r5, r6, r7, pc}
 885              		.loc 1 232 1 view .LVU194
 886              		.cfi_endproc
 887              	.LFE90:
 888              		.cantunwind
 889              		.fnend
 891              		.section	.text._ZN7WS2812B6renderEv,"ax",%progbits
 892              		.align	1
ARM GAS  C:\Users\DARSTE~1\AppData\Local\Temp\ccuC9E63.s 			page 22


 893              		.global	_ZN7WS2812B6renderEv
 894              		.syntax unified
 895              		.thumb
 896              		.thumb_func
 898              	_ZN7WS2812B6renderEv:
 899              		.fnstart
 900              	.LVL106:
 901              	.LFB80:
  76:App/WS2812B/ws2812b.cpp ****     memcpy(_colorData, _targetColorData, _ledsCount * 4);
 902              		.loc 1 76 1 is_stmt 1 view -0
 903              		.cfi_startproc
 904              		@ args = 0, pretend = 0, frame = 0
 905              		@ frame_needed = 0, uses_anonymous_args = 0
  76:App/WS2812B/ws2812b.cpp ****     memcpy(_colorData, _targetColorData, _ledsCount * 4);
 906              		.loc 1 76 1 is_stmt 0 view .LVU196
 907 0000 10B5     		push	{r4, lr}
 908              		.save {r4, lr}
 909              	.LCFI8:
 910              		.cfi_def_cfa_offset 8
 911              		.cfi_offset 4, -8
 912              		.cfi_offset 14, -4
 913 0002 0446     		mov	r4, r0
  77:App/WS2812B/ws2812b.cpp ****     WS2812B::updateBuffer();
 914              		.loc 1 77 5 is_stmt 1 view .LVU197
  77:App/WS2812B/ws2812b.cpp ****     WS2812B::updateBuffer();
 915              		.loc 1 77 42 is_stmt 0 view .LVU198
 916 0004 0289     		ldrh	r2, [r0, #8]
  77:App/WS2812B/ws2812b.cpp ****     WS2812B::updateBuffer();
 917              		.loc 1 77 11 view .LVU199
 918 0006 9200     		lsls	r2, r2, #2
 919 0008 C169     		ldr	r1, [r0, #28]
 920 000a 8069     		ldr	r0, [r0, #24]
 921              	.LVL107:
  77:App/WS2812B/ws2812b.cpp ****     WS2812B::updateBuffer();
 922              		.loc 1 77 11 view .LVU200
 923 000c FFF7FEFF 		bl	memcpy
 924              	.LVL108:
  78:App/WS2812B/ws2812b.cpp **** 
 925              		.loc 1 78 5 is_stmt 1 view .LVU201
  78:App/WS2812B/ws2812b.cpp **** 
 926              		.loc 1 78 26 is_stmt 0 view .LVU202
 927 0010 2046     		mov	r0, r4
 928 0012 FFF7FEFF 		bl	_ZN7WS2812B12updateBufferEv
 929              	.LVL109:
  80:App/WS2812B/ws2812b.cpp ****         _PWMgenerator, _channel,
 930              		.loc 1 80 5 is_stmt 1 view .LVU203
  83:App/WS2812B/ws2812b.cpp ****     );
 931              		.loc 1 83 9 is_stmt 0 view .LVU204
 932 0016 2389     		ldrh	r3, [r4, #8]
  83:App/WS2812B/ws2812b.cpp ****     );
 933              		.loc 1 83 22 view .LVU205
 934 0018 94F83420 		ldrb	r2, [r4, #52]	@ zero_extendqisi2
  80:App/WS2812B/ws2812b.cpp ****         _PWMgenerator, _channel,
 935              		.loc 1 80 26 view .LVU206
 936 001c 02FB03F3 		mul	r3, r2, r3
 937 0020 9BB2     		uxth	r3, r3
 938 0022 226B     		ldr	r2, [r4, #48]
ARM GAS  C:\Users\DARSTE~1\AppData\Local\Temp\ccuC9E63.s 			page 23


 939 0024 E168     		ldr	r1, [r4, #12]
 940 0026 6068     		ldr	r0, [r4, #4]
 941 0028 FFF7FEFF 		bl	HAL_TIM_PWM_Start_DMA
 942              	.LVL110:
  86:App/WS2812B/ws2812b.cpp ****     while (UPDATE_STATE == WS2812B_UPDATE_ONGOING);
 943              		.loc 1 86 5 is_stmt 1 view .LVU207
  86:App/WS2812B/ws2812b.cpp ****     while (UPDATE_STATE == WS2812B_UPDATE_ONGOING);
 944              		.loc 1 86 18 is_stmt 0 view .LVU208
 945 002c 0023     		movs	r3, #0
 946 002e 2370     		strb	r3, [r4]
  87:App/WS2812B/ws2812b.cpp **** }
 947              		.loc 1 87 5 is_stmt 1 view .LVU209
 948              	.L35:
  87:App/WS2812B/ws2812b.cpp **** }
 949              		.loc 1 87 25 discriminator 1 view .LVU210
  87:App/WS2812B/ws2812b.cpp **** }
 950              		.loc 1 87 12 is_stmt 0 discriminator 1 view .LVU211
 951 0030 2378     		ldrb	r3, [r4]	@ zero_extendqisi2
  87:App/WS2812B/ws2812b.cpp **** }
 952              		.loc 1 87 25 discriminator 1 view .LVU212
 953 0032 002B     		cmp	r3, #0
 954 0034 FCD0     		beq	.L35
  88:App/WS2812B/ws2812b.cpp **** 
 955              		.loc 1 88 1 view .LVU213
 956 0036 10BD     		pop	{r4, pc}
  88:App/WS2812B/ws2812b.cpp **** 
 957              		.loc 1 88 1 view .LVU214
 958              		.cfi_endproc
 959              	.LFE80:
 960              		.fnend
 962              		.section	.text._ZN7WS2812B10transitionEv,"ax",%progbits
 963              		.align	1
 964              		.global	_ZN7WS2812B10transitionEv
 965              		.syntax unified
 966              		.thumb
 967              		.thumb_func
 969              	_ZN7WS2812B10transitionEv:
 970              		.fnstart
 971              	.LVL111:
 972              	.LFB81:
  91:App/WS2812B/ws2812b.cpp ****     uint16_t checkDifference = 0;
 973              		.loc 1 91 1 is_stmt 1 view -0
 974              		.cfi_startproc
 975              		@ args = 0, pretend = 0, frame = 16
 976              		@ frame_needed = 0, uses_anonymous_args = 0
  91:App/WS2812B/ws2812b.cpp ****     uint16_t checkDifference = 0;
 977              		.loc 1 91 1 is_stmt 0 view .LVU216
 978 0000 2DE9F04F 		push	{r4, r5, r6, r7, r8, r9, r10, fp, lr}
 979              		.save {r4, r5, r6, r7, r8, r9, r10, fp, lr}
 980              	.LCFI9:
 981              		.cfi_def_cfa_offset 36
 982              		.cfi_offset 4, -36
 983              		.cfi_offset 5, -32
 984              		.cfi_offset 6, -28
 985              		.cfi_offset 7, -24
 986              		.cfi_offset 8, -20
 987              		.cfi_offset 9, -16
ARM GAS  C:\Users\DARSTE~1\AppData\Local\Temp\ccuC9E63.s 			page 24


 988              		.cfi_offset 10, -12
 989              		.cfi_offset 11, -8
 990              		.cfi_offset 14, -4
 991              		.pad #20
 992 0004 85B0     		sub	sp, sp, #20
 993              	.LCFI10:
 994              		.cfi_def_cfa_offset 56
 995 0006 0446     		mov	r4, r0
  92:App/WS2812B/ws2812b.cpp ****     for (uint16_t ledIterate = 0; ledIterate < _ledsCount; ledIterate++)
 996              		.loc 1 92 5 is_stmt 1 view .LVU217
 997              	.LVL112:
  93:App/WS2812B/ws2812b.cpp ****     {
 998              		.loc 1 93 5 view .LVU218
 999              	.LBB8:
  93:App/WS2812B/ws2812b.cpp ****     {
 1000              		.loc 1 93 19 is_stmt 0 view .LVU219
 1001 0008 0025     		movs	r5, #0
 1002              	.LBE8:
  92:App/WS2812B/ws2812b.cpp ****     for (uint16_t ledIterate = 0; ledIterate < _ledsCount; ledIterate++)
 1003              		.loc 1 92 14 view .LVU220
 1004 000a 0395     		str	r5, [sp, #12]
 1005              	.LBB11:
  93:App/WS2812B/ws2812b.cpp ****     {
 1006              		.loc 1 93 5 view .LVU221
 1007 000c 1EE0     		b	.L38
 1008              	.LVL113:
 1009              	.L53:
 1010              	.LBB9:
  97:App/WS2812B/ws2812b.cpp ****             continue;
 1011              		.loc 1 97 13 is_stmt 1 discriminator 1 view .LVU222
  97:App/WS2812B/ws2812b.cpp ****             continue;
 1012              		.loc 1 97 28 is_stmt 0 discriminator 1 view .LVU223
 1013 000e 039B     		ldr	r3, [sp, #12]
 1014 0010 0133     		adds	r3, r3, #1
 1015 0012 9BB2     		uxth	r3, r3
 1016 0014 0393     		str	r3, [sp, #12]
 1017              	.LVL114:
  98:App/WS2812B/ws2812b.cpp ****         }
 1018              		.loc 1 98 13 is_stmt 1 discriminator 1 view .LVU224
 1019 0016 17E0     		b	.L40
 1020              	.LVL115:
 1021              	.L41:
 110:App/WS2812B/ws2812b.cpp **** 
 1022              		.loc 1 110 14 view .LVU225
 1023 0018 019B     		ldr	r3, [sp, #4]
 1024 001a 9E42     		cmp	r6, r3
 1025 001c 01D9     		bls	.L42
 110:App/WS2812B/ws2812b.cpp **** 
 1026              		.loc 1 110 42 discriminator 1 view .LVU226
 110:App/WS2812B/ws2812b.cpp **** 
 1027              		.loc 1 110 52 is_stmt 0 discriminator 1 view .LVU227
 1028 001e 013E     		subs	r6, r6, #1
 1029              	.LVL116:
 110:App/WS2812B/ws2812b.cpp **** 
 1030              		.loc 1 110 52 discriminator 1 view .LVU228
 1031 0020 F6B2     		uxtb	r6, r6
 1032              	.LVL117:
ARM GAS  C:\Users\DARSTE~1\AppData\Local\Temp\ccuC9E63.s 			page 25


 1033              	.L42:
 112:App/WS2812B/ws2812b.cpp ****         else if (currentGreen > targetGreen) currentGreen--;
 1034              		.loc 1 112 9 is_stmt 1 view .LVU229
 1035 0022 029B     		ldr	r3, [sp, #8]
 1036 0024 9F42     		cmp	r7, r3
 1037 0026 42D2     		bcs	.L43
 112:App/WS2812B/ws2812b.cpp ****         else if (currentGreen > targetGreen) currentGreen--;
 1038              		.loc 1 112 41 discriminator 1 view .LVU230
 112:App/WS2812B/ws2812b.cpp ****         else if (currentGreen > targetGreen) currentGreen--;
 1039              		.loc 1 112 53 is_stmt 0 discriminator 1 view .LVU231
 1040 0028 0137     		adds	r7, r7, #1
 1041              	.LVL118:
 112:App/WS2812B/ws2812b.cpp ****         else if (currentGreen > targetGreen) currentGreen--;
 1042              		.loc 1 112 53 discriminator 1 view .LVU232
 1043 002a FFB2     		uxtb	r7, r7
 1044              	.LVL119:
 1045              	.L44:
 115:App/WS2812B/ws2812b.cpp ****         else if (currentBlue > targetBlue) currentBlue--;
 1046              		.loc 1 115 9 is_stmt 1 view .LVU233
 1047 002c 8045     		cmp	r8, r0
 1048 002e 44D2     		bcs	.L45
 115:App/WS2812B/ws2812b.cpp ****         else if (currentBlue > targetBlue) currentBlue--;
 1049              		.loc 1 115 39 discriminator 1 view .LVU234
 115:App/WS2812B/ws2812b.cpp ****         else if (currentBlue > targetBlue) currentBlue--;
 1050              		.loc 1 115 50 is_stmt 0 discriminator 1 view .LVU235
 1051 0030 08F10108 		add	r8, r8, #1
 1052              	.LVL120:
 115:App/WS2812B/ws2812b.cpp ****         else if (currentBlue > targetBlue) currentBlue--;
 1053              		.loc 1 115 50 discriminator 1 view .LVU236
 1054 0034 5FFA88F8 		uxtb	r8, r8
 1055              	.LVL121:
 1056              	.L46:
 118:App/WS2812B/ws2812b.cpp ****     }
 1057              		.loc 1 118 9 is_stmt 1 view .LVU237
 118:App/WS2812B/ws2812b.cpp ****     }
 1058              		.loc 1 118 53 is_stmt 0 view .LVU238
 1059 0038 4346     		mov	r3, r8
 1060 003a 3A46     		mov	r2, r7
 1061 003c 3146     		mov	r1, r6
 1062 003e 2046     		mov	r0, r4
 1063              	.LVL122:
 118:App/WS2812B/ws2812b.cpp ****     }
 1064              		.loc 1 118 53 view .LVU239
 1065 0040 FFF7FEFF 		bl	_ZN7WS2812B10combineRGBEhhh
 1066              	.LVL123:
 118:App/WS2812B/ws2812b.cpp ****     }
 1067              		.loc 1 118 32 view .LVU240
 1068 0044 4AF80B00 		str	r0, [r10, fp]
 1069              	.LVL124:
 1070              	.L40:
 118:App/WS2812B/ws2812b.cpp ****     }
 1071              		.loc 1 118 32 view .LVU241
 1072              	.LBE9:
  93:App/WS2812B/ws2812b.cpp ****     {
 1073              		.loc 1 93 5 is_stmt 1 discriminator 2 view .LVU242
 1074 0048 0135     		adds	r5, r5, #1
 1075              	.LVL125:
ARM GAS  C:\Users\DARSTE~1\AppData\Local\Temp\ccuC9E63.s 			page 26


  93:App/WS2812B/ws2812b.cpp ****     {
 1076              		.loc 1 93 5 is_stmt 0 discriminator 2 view .LVU243
 1077 004a ADB2     		uxth	r5, r5
 1078              	.LVL126:
 1079              	.L38:
  93:App/WS2812B/ws2812b.cpp ****     {
 1080              		.loc 1 93 46 is_stmt 1 discriminator 1 view .LVU244
  93:App/WS2812B/ws2812b.cpp ****     {
 1081              		.loc 1 93 48 is_stmt 0 discriminator 1 view .LVU245
 1082 004c 2389     		ldrh	r3, [r4, #8]
  93:App/WS2812B/ws2812b.cpp ****     {
 1083              		.loc 1 93 46 discriminator 1 view .LVU246
 1084 004e AB42     		cmp	r3, r5
 1085 0050 3AD9     		bls	.L52
 1086              	.LBB10:
  95:App/WS2812B/ws2812b.cpp ****         {
 1087              		.loc 1 95 9 is_stmt 1 view .LVU247
  95:App/WS2812B/ws2812b.cpp ****         {
 1088              		.loc 1 95 13 is_stmt 0 view .LVU248
 1089 0052 D4F818A0 		ldr	r10, [r4, #24]
  95:App/WS2812B/ws2812b.cpp ****         {
 1090              		.loc 1 95 34 view .LVU249
 1091 0056 4FEA850B 		lsl	fp, r5, #2
 1092 005a 5AF82580 		ldr	r8, [r10, r5, lsl #2]
  95:App/WS2812B/ws2812b.cpp ****         {
 1093              		.loc 1 95 39 view .LVU250
 1094 005e E369     		ldr	r3, [r4, #28]
  95:App/WS2812B/ws2812b.cpp ****         {
 1095              		.loc 1 95 66 view .LVU251
 1096 0060 53F82590 		ldr	r9, [r3, r5, lsl #2]
  95:App/WS2812B/ws2812b.cpp ****         {
 1097              		.loc 1 95 9 view .LVU252
 1098 0064 C845     		cmp	r8, r9
 1099 0066 D2D0     		beq	.L53
 101:App/WS2812B/ws2812b.cpp ****         uint8_t currentGreen = WS2812B::extractGreen(_colorData[ledIterate]);
 1100              		.loc 1 101 9 is_stmt 1 view .LVU253
 101:App/WS2812B/ws2812b.cpp ****         uint8_t currentGreen = WS2812B::extractGreen(_colorData[ledIterate]);
 1101              		.loc 1 101 49 is_stmt 0 view .LVU254
 1102 0068 4146     		mov	r1, r8
 1103 006a 2046     		mov	r0, r4
 1104 006c FFF7FEFF 		bl	_ZN7WS2812B10extractRedEm
 1105              	.LVL127:
 1106 0070 0646     		mov	r6, r0
 1107              	.LVL128:
 102:App/WS2812B/ws2812b.cpp ****         uint8_t currentBlue = WS2812B::extractBlue(_colorData[ledIterate]);
 1108              		.loc 1 102 9 is_stmt 1 view .LVU255
 102:App/WS2812B/ws2812b.cpp ****         uint8_t currentBlue = WS2812B::extractBlue(_colorData[ledIterate]);
 1109              		.loc 1 102 53 is_stmt 0 view .LVU256
 1110 0072 4146     		mov	r1, r8
 1111 0074 2046     		mov	r0, r4
 1112 0076 FFF7FEFF 		bl	_ZN7WS2812B12extractGreenEm
 1113              	.LVL129:
 1114 007a 0746     		mov	r7, r0
 1115              	.LVL130:
 103:App/WS2812B/ws2812b.cpp **** 
 1116              		.loc 1 103 9 is_stmt 1 view .LVU257
 103:App/WS2812B/ws2812b.cpp **** 
ARM GAS  C:\Users\DARSTE~1\AppData\Local\Temp\ccuC9E63.s 			page 27


 1117              		.loc 1 103 51 is_stmt 0 view .LVU258
 1118 007c 4146     		mov	r1, r8
 1119 007e 2046     		mov	r0, r4
 1120 0080 FFF7FEFF 		bl	_ZN7WS2812B11extractBlueEm
 1121              	.LVL131:
 1122 0084 8046     		mov	r8, r0
 1123              	.LVL132:
 105:App/WS2812B/ws2812b.cpp ****         uint8_t targetGreen = WS2812B::extractGreen(_targetColorData[ledIterate]);
 1124              		.loc 1 105 9 is_stmt 1 view .LVU259
 105:App/WS2812B/ws2812b.cpp ****         uint8_t targetGreen = WS2812B::extractGreen(_targetColorData[ledIterate]);
 1125              		.loc 1 105 48 is_stmt 0 view .LVU260
 1126 0086 4946     		mov	r1, r9
 1127 0088 2046     		mov	r0, r4
 1128 008a FFF7FEFF 		bl	_ZN7WS2812B10extractRedEm
 1129              	.LVL133:
 1130 008e 0190     		str	r0, [sp, #4]
 1131              	.LVL134:
 106:App/WS2812B/ws2812b.cpp ****         uint8_t targetBlue = WS2812B::extractBlue(_targetColorData[ledIterate]);
 1132              		.loc 1 106 9 is_stmt 1 view .LVU261
 106:App/WS2812B/ws2812b.cpp ****         uint8_t targetBlue = WS2812B::extractBlue(_targetColorData[ledIterate]);
 1133              		.loc 1 106 52 is_stmt 0 view .LVU262
 1134 0090 4946     		mov	r1, r9
 1135 0092 2046     		mov	r0, r4
 1136 0094 FFF7FEFF 		bl	_ZN7WS2812B12extractGreenEm
 1137              	.LVL135:
 1138 0098 0290     		str	r0, [sp, #8]
 1139              	.LVL136:
 107:App/WS2812B/ws2812b.cpp **** 
 1140              		.loc 1 107 9 is_stmt 1 view .LVU263
 107:App/WS2812B/ws2812b.cpp **** 
 1141              		.loc 1 107 50 is_stmt 0 view .LVU264
 1142 009a 4946     		mov	r1, r9
 1143 009c 2046     		mov	r0, r4
 1144 009e FFF7FEFF 		bl	_ZN7WS2812B11extractBlueEm
 1145              	.LVL137:
 109:App/WS2812B/ws2812b.cpp ****         else if (currentRed > targetRed) currentRed--;
 1146              		.loc 1 109 9 is_stmt 1 view .LVU265
 1147 00a2 019B     		ldr	r3, [sp, #4]
 1148 00a4 9E42     		cmp	r6, r3
 1149 00a6 B7D2     		bcs	.L41
 109:App/WS2812B/ws2812b.cpp ****         else if (currentRed > targetRed) currentRed--;
 1150              		.loc 1 109 37 discriminator 1 view .LVU266
 109:App/WS2812B/ws2812b.cpp ****         else if (currentRed > targetRed) currentRed--;
 1151              		.loc 1 109 47 is_stmt 0 discriminator 1 view .LVU267
 1152 00a8 0136     		adds	r6, r6, #1
 1153              	.LVL138:
 109:App/WS2812B/ws2812b.cpp ****         else if (currentRed > targetRed) currentRed--;
 1154              		.loc 1 109 47 discriminator 1 view .LVU268
 1155 00aa F6B2     		uxtb	r6, r6
 1156              	.LVL139:
 109:App/WS2812B/ws2812b.cpp ****         else if (currentRed > targetRed) currentRed--;
 1157              		.loc 1 109 47 discriminator 1 view .LVU269
 1158 00ac B9E7     		b	.L42
 1159              	.L43:
 113:App/WS2812B/ws2812b.cpp **** 
 1160              		.loc 1 113 14 is_stmt 1 view .LVU270
 1161 00ae 029B     		ldr	r3, [sp, #8]
ARM GAS  C:\Users\DARSTE~1\AppData\Local\Temp\ccuC9E63.s 			page 28


 1162 00b0 9F42     		cmp	r7, r3
 1163 00b2 BBD9     		bls	.L44
 113:App/WS2812B/ws2812b.cpp **** 
 1164              		.loc 1 113 46 discriminator 1 view .LVU271
 113:App/WS2812B/ws2812b.cpp **** 
 1165              		.loc 1 113 58 is_stmt 0 discriminator 1 view .LVU272
 1166 00b4 013F     		subs	r7, r7, #1
 1167              	.LVL140:
 113:App/WS2812B/ws2812b.cpp **** 
 1168              		.loc 1 113 58 discriminator 1 view .LVU273
 1169 00b6 FFB2     		uxtb	r7, r7
 1170              	.LVL141:
 113:App/WS2812B/ws2812b.cpp **** 
 1171              		.loc 1 113 58 discriminator 1 view .LVU274
 1172 00b8 B8E7     		b	.L44
 1173              	.L45:
 116:App/WS2812B/ws2812b.cpp **** 
 1174              		.loc 1 116 14 is_stmt 1 view .LVU275
 1175 00ba 8045     		cmp	r8, r0
 1176 00bc BCD9     		bls	.L46
 116:App/WS2812B/ws2812b.cpp **** 
 1177              		.loc 1 116 44 discriminator 1 view .LVU276
 116:App/WS2812B/ws2812b.cpp **** 
 1178              		.loc 1 116 55 is_stmt 0 discriminator 1 view .LVU277
 1179 00be 08F1FF38 		add	r8, r8, #-1
 1180              	.LVL142:
 116:App/WS2812B/ws2812b.cpp **** 
 1181              		.loc 1 116 55 discriminator 1 view .LVU278
 1182 00c2 5FFA88F8 		uxtb	r8, r8
 1183              	.LVL143:
 116:App/WS2812B/ws2812b.cpp **** 
 1184              		.loc 1 116 55 discriminator 1 view .LVU279
 1185 00c6 B7E7     		b	.L46
 1186              	.LVL144:
 1187              	.L52:
 116:App/WS2812B/ws2812b.cpp **** 
 1188              		.loc 1 116 55 discriminator 1 view .LVU280
 1189              	.LBE10:
 1190              	.LBE11:
 121:App/WS2812B/ws2812b.cpp ****         return WS2812B_TRANSITION_FINISHED;
 1191              		.loc 1 121 5 is_stmt 1 view .LVU281
 1192 00c8 039A     		ldr	r2, [sp, #12]
 1193 00ca 9342     		cmp	r3, r2
 1194 00cc 16D0     		beq	.L50
 124:App/WS2812B/ws2812b.cpp **** 
 1195              		.loc 1 124 5 view .LVU282
 124:App/WS2812B/ws2812b.cpp **** 
 1196              		.loc 1 124 26 is_stmt 0 view .LVU283
 1197 00ce 2046     		mov	r0, r4
 1198 00d0 FFF7FEFF 		bl	_ZN7WS2812B12updateBufferEv
 1199              	.LVL145:
 126:App/WS2812B/ws2812b.cpp ****         _PWMgenerator, _channel,
 1200              		.loc 1 126 5 is_stmt 1 view .LVU284
 129:App/WS2812B/ws2812b.cpp ****     );
 1201              		.loc 1 129 9 is_stmt 0 view .LVU285
 1202 00d4 2389     		ldrh	r3, [r4, #8]
 129:App/WS2812B/ws2812b.cpp ****     );
ARM GAS  C:\Users\DARSTE~1\AppData\Local\Temp\ccuC9E63.s 			page 29


 1203              		.loc 1 129 22 view .LVU286
 1204 00d6 94F83420 		ldrb	r2, [r4, #52]	@ zero_extendqisi2
 126:App/WS2812B/ws2812b.cpp ****         _PWMgenerator, _channel,
 1205              		.loc 1 126 26 view .LVU287
 1206 00da 02FB03F3 		mul	r3, r2, r3
 1207 00de 9BB2     		uxth	r3, r3
 1208 00e0 226B     		ldr	r2, [r4, #48]
 1209 00e2 E168     		ldr	r1, [r4, #12]
 1210 00e4 6068     		ldr	r0, [r4, #4]
 1211 00e6 FFF7FEFF 		bl	HAL_TIM_PWM_Start_DMA
 1212              	.LVL146:
 132:App/WS2812B/ws2812b.cpp ****     while (UPDATE_STATE == WS2812B_UPDATE_ONGOING);
 1213              		.loc 1 132 5 is_stmt 1 view .LVU288
 132:App/WS2812B/ws2812b.cpp ****     while (UPDATE_STATE == WS2812B_UPDATE_ONGOING);
 1214              		.loc 1 132 18 is_stmt 0 view .LVU289
 1215 00ea 0023     		movs	r3, #0
 1216 00ec 2370     		strb	r3, [r4]
 133:App/WS2812B/ws2812b.cpp **** 
 1217              		.loc 1 133 5 is_stmt 1 view .LVU290
 1218              	.L49:
 133:App/WS2812B/ws2812b.cpp **** 
 1219              		.loc 1 133 25 discriminator 1 view .LVU291
 133:App/WS2812B/ws2812b.cpp **** 
 1220              		.loc 1 133 12 is_stmt 0 discriminator 1 view .LVU292
 1221 00ee 2378     		ldrb	r3, [r4]	@ zero_extendqisi2
 133:App/WS2812B/ws2812b.cpp **** 
 1222              		.loc 1 133 25 discriminator 1 view .LVU293
 1223 00f0 002B     		cmp	r3, #0
 1224 00f2 FCD0     		beq	.L49
 135:App/WS2812B/ws2812b.cpp **** }
 1225              		.loc 1 135 27 view .LVU294
 1226 00f4 0020     		movs	r0, #0
 1227              	.L48:
 136:App/WS2812B/ws2812b.cpp **** 
 1228              		.loc 1 136 1 view .LVU295
 1229 00f6 05B0     		add	sp, sp, #20
 1230              	.LCFI11:
 1231              		.cfi_remember_state
 1232              		.cfi_def_cfa_offset 36
 1233              		@ sp needed
 1234 00f8 BDE8F08F 		pop	{r4, r5, r6, r7, r8, r9, r10, fp, pc}
 1235              	.LVL147:
 1236              	.L50:
 1237              	.LCFI12:
 1238              		.cfi_restore_state
 122:App/WS2812B/ws2812b.cpp **** 
 1239              		.loc 1 122 16 view .LVU296
 1240 00fc 0120     		movs	r0, #1
 1241 00fe FAE7     		b	.L48
 1242              		.cfi_endproc
 1243              	.LFE81:
 1244              		.fnend
 1246              		.global	__aeabi_fcmpgt
 1247              		.global	__aeabi_fcmple
 1248              		.global	__aeabi_fcmpeq
 1249              		.section	.text._ZN7WS2812B10transitionEPff,"ax",%progbits
 1250              		.align	1
ARM GAS  C:\Users\DARSTE~1\AppData\Local\Temp\ccuC9E63.s 			page 30


 1251              		.global	_ZN7WS2812B10transitionEPff
 1252              		.syntax unified
 1253              		.thumb
 1254              		.thumb_func
 1256              	_ZN7WS2812B10transitionEPff:
 1257              		.fnstart
 1258              	.LVL148:
 1259              	.LFB82:
 139:App/WS2812B/ws2812b.cpp ****     if (*timeTick > duration)
 1260              		.loc 1 139 1 is_stmt 1 view -0
 1261              		.cfi_startproc
 1262              		@ args = 0, pretend = 0, frame = 0
 1263              		@ frame_needed = 0, uses_anonymous_args = 0
 139:App/WS2812B/ws2812b.cpp ****     if (*timeTick > duration)
 1264              		.loc 1 139 1 is_stmt 0 view .LVU298
 1265 0000 2DE9F84F 		push	{r3, r4, r5, r6, r7, r8, r9, r10, fp, lr}
 1266              		.save {r3, r4, r5, r6, r7, r8, r9, r10, fp, lr}
 1267              	.LCFI13:
 1268              		.cfi_def_cfa_offset 40
 1269              		.cfi_offset 3, -40
 1270              		.cfi_offset 4, -36
 1271              		.cfi_offset 5, -32
 1272              		.cfi_offset 6, -28
 1273              		.cfi_offset 7, -24
 1274              		.cfi_offset 8, -20
 1275              		.cfi_offset 9, -16
 1276              		.cfi_offset 10, -12
 1277              		.cfi_offset 11, -8
 1278              		.cfi_offset 14, -4
 1279 0004 0446     		mov	r4, r0
 1280 0006 8946     		mov	r9, r1
 1281 0008 1646     		mov	r6, r2
 140:App/WS2812B/ws2812b.cpp ****     {
 1282              		.loc 1 140 5 is_stmt 1 view .LVU299
 140:App/WS2812B/ws2812b.cpp ****     {
 1283              		.loc 1 140 9 is_stmt 0 view .LVU300
 1284 000a 0D68     		ldr	r5, [r1]	@ float
 140:App/WS2812B/ws2812b.cpp ****     {
 1285              		.loc 1 140 5 view .LVU301
 1286 000c 1146     		mov	r1, r2
 1287              	.LVL149:
 140:App/WS2812B/ws2812b.cpp ****     {
 1288              		.loc 1 140 5 view .LVU302
 1289 000e 2846     		mov	r0, r5
 1290              	.LVL150:
 140:App/WS2812B/ws2812b.cpp ****     {
 1291              		.loc 1 140 5 view .LVU303
 1292 0010 FFF7FEFF 		bl	__aeabi_fcmpgt
 1293              	.LVL151:
 140:App/WS2812B/ws2812b.cpp ****     {
 1294              		.loc 1 140 5 view .LVU304
 1295 0014 68B9     		cbnz	r0, .L72
 147:App/WS2812B/ws2812b.cpp ****         return WS2812B_TRANSITION_FINISHED;
 1296              		.loc 1 147 5 is_stmt 1 view .LVU305
 1297 0016 0021     		movs	r1, #0
 1298 0018 3046     		mov	r0, r6
 1299 001a FFF7FEFF 		bl	__aeabi_fcmple
ARM GAS  C:\Users\DARSTE~1\AppData\Local\Temp\ccuC9E63.s 			page 31


 1300              	.LVL152:
 1301 001e 0028     		cmp	r0, #0
 1302 0020 40F01881 		bne	.L67
 150:App/WS2812B/ws2812b.cpp ****     {
 1303              		.loc 1 150 5 view .LVU306
 1304              	.LBB12:
 1305 0024 0021     		movs	r1, #0
 1306 0026 2846     		mov	r0, r5
 1307 0028 FFF7FEFF 		bl	__aeabi_fcmpeq
 1308              	.LVL153:
 1309 002c 78B9     		cbnz	r0, .L73
 1310              	.L58:
 1311              	.LBB13:
 1312              	.LBB14:
 166:App/WS2812B/ws2812b.cpp ****             _prevColorData[ledIterate] = _colorData[ledIterate];
 1313              		.loc 1 166 23 is_stmt 0 discriminator 1 view .LVU307
 1314 002e 0025     		movs	r5, #0
 1315 0030 F7E0     		b	.L64
 1316              	.L72:
 1317              	.LBE14:
 1318              	.LBE13:
 1319              	.LBE12:
 142:App/WS2812B/ws2812b.cpp ****         free(_prevColorData);
 1320              		.loc 1 142 9 is_stmt 1 view .LVU308
 142:App/WS2812B/ws2812b.cpp ****         free(_prevColorData);
 1321              		.loc 1 142 13 is_stmt 0 view .LVU309
 1322 0032 606A     		ldr	r0, [r4, #36]
 1323 0034 FFF7FEFF 		bl	free
 1324              	.LVL154:
 142:App/WS2812B/ws2812b.cpp ****         free(_prevColorData);
 1325              		.loc 1 142 26 is_stmt 1 view .LVU310
 142:App/WS2812B/ws2812b.cpp ****         free(_prevColorData);
 1326              		.loc 1 142 30 is_stmt 0 view .LVU311
 1327 0038 A06A     		ldr	r0, [r4, #40]
 1328 003a FFF7FEFF 		bl	free
 1329              	.LVL155:
 142:App/WS2812B/ws2812b.cpp ****         free(_prevColorData);
 1330              		.loc 1 142 45 is_stmt 1 view .LVU312
 142:App/WS2812B/ws2812b.cpp ****         free(_prevColorData);
 1331              		.loc 1 142 49 is_stmt 0 view .LVU313
 1332 003e E06A     		ldr	r0, [r4, #44]
 1333 0040 FFF7FEFF 		bl	free
 1334              	.LVL156:
 143:App/WS2812B/ws2812b.cpp ****         return WS2812B_TRANSITION_FINISHED;
 1335              		.loc 1 143 9 is_stmt 1 view .LVU314
 143:App/WS2812B/ws2812b.cpp ****         return WS2812B_TRANSITION_FINISHED;
 1336              		.loc 1 143 13 is_stmt 0 view .LVU315
 1337 0044 206A     		ldr	r0, [r4, #32]
 1338 0046 FFF7FEFF 		bl	free
 1339              	.LVL157:
 144:App/WS2812B/ws2812b.cpp ****     }
 1340              		.loc 1 144 9 is_stmt 1 view .LVU316
 144:App/WS2812B/ws2812b.cpp ****     }
 1341              		.loc 1 144 16 is_stmt 0 view .LVU317
 1342 004a 0120     		movs	r0, #1
 1343 004c 00E1     		b	.L57
 1344              	.L73:
ARM GAS  C:\Users\DARSTE~1\AppData\Local\Temp\ccuC9E63.s 			page 32


 1345              	.LBB18:
 1346              	.LBB17:
 152:App/WS2812B/ws2812b.cpp ****         _transRed = (float *)calloc(_ledsCount, sizeof(uint32_t));
 1347              		.loc 1 152 9 is_stmt 1 view .LVU318
 152:App/WS2812B/ws2812b.cpp ****         _transRed = (float *)calloc(_ledsCount, sizeof(uint32_t));
 1348              		.loc 1 152 42 is_stmt 0 view .LVU319
 1349 004e 8249     		ldr	r1, .L74
 1350 0050 3046     		mov	r0, r6
 1351 0052 FFF7FEFF 		bl	__aeabi_fdiv
 1352              	.LVL158:
 1353 0056 0146     		mov	r1, r0
 152:App/WS2812B/ws2812b.cpp ****         _transRed = (float *)calloc(_ledsCount, sizeof(uint32_t));
 1354              		.loc 1 152 31 view .LVU320
 1355 0058 2846     		mov	r0, r5
 1356 005a FFF7FEFF 		bl	__aeabi_fadd
 1357              	.LVL159:
 152:App/WS2812B/ws2812b.cpp ****         _transRed = (float *)calloc(_ledsCount, sizeof(uint32_t));
 1358              		.loc 1 152 19 view .LVU321
 1359 005e C9F80000 		str	r0, [r9]	@ float
 153:App/WS2812B/ws2812b.cpp ****         _transGreen = (float *)calloc(_ledsCount, sizeof(uint32_t));
 1360              		.loc 1 153 9 is_stmt 1 view .LVU322
 153:App/WS2812B/ws2812b.cpp ****         _transGreen = (float *)calloc(_ledsCount, sizeof(uint32_t));
 1361              		.loc 1 153 37 is_stmt 0 view .LVU323
 1362 0062 2589     		ldrh	r5, [r4, #8]
 153:App/WS2812B/ws2812b.cpp ****         _transGreen = (float *)calloc(_ledsCount, sizeof(uint32_t));
 1363              		.loc 1 153 36 view .LVU324
 1364 0064 0421     		movs	r1, #4
 1365 0066 2846     		mov	r0, r5
 1366 0068 FFF7FEFF 		bl	calloc
 1367              	.LVL160:
 153:App/WS2812B/ws2812b.cpp ****         _transGreen = (float *)calloc(_ledsCount, sizeof(uint32_t));
 1368              		.loc 1 153 19 view .LVU325
 1369 006c 6062     		str	r0, [r4, #36]
 154:App/WS2812B/ws2812b.cpp ****         _transBlue = (float *)calloc(_ledsCount, sizeof(uint32_t));
 1370              		.loc 1 154 9 is_stmt 1 view .LVU326
 154:App/WS2812B/ws2812b.cpp ****         _transBlue = (float *)calloc(_ledsCount, sizeof(uint32_t));
 1371              		.loc 1 154 38 is_stmt 0 view .LVU327
 1372 006e 0421     		movs	r1, #4
 1373 0070 2846     		mov	r0, r5
 1374 0072 FFF7FEFF 		bl	calloc
 1375              	.LVL161:
 154:App/WS2812B/ws2812b.cpp ****         _transBlue = (float *)calloc(_ledsCount, sizeof(uint32_t));
 1376              		.loc 1 154 21 view .LVU328
 1377 0076 A062     		str	r0, [r4, #40]
 155:App/WS2812B/ws2812b.cpp ****         _prevColorData = (uint32_t *)calloc(_ledsCount, sizeof(uint32_t));
 1378              		.loc 1 155 9 is_stmt 1 view .LVU329
 155:App/WS2812B/ws2812b.cpp ****         _prevColorData = (uint32_t *)calloc(_ledsCount, sizeof(uint32_t));
 1379              		.loc 1 155 37 is_stmt 0 view .LVU330
 1380 0078 0421     		movs	r1, #4
 1381 007a 2846     		mov	r0, r5
 1382 007c FFF7FEFF 		bl	calloc
 1383              	.LVL162:
 155:App/WS2812B/ws2812b.cpp ****         _prevColorData = (uint32_t *)calloc(_ledsCount, sizeof(uint32_t));
 1384              		.loc 1 155 20 view .LVU331
 1385 0080 E062     		str	r0, [r4, #44]
 156:App/WS2812B/ws2812b.cpp ****         for (uint16_t ledIterate = 0; ledIterate < _ledsCount; ledIterate++)
 1386              		.loc 1 156 9 is_stmt 1 view .LVU332
ARM GAS  C:\Users\DARSTE~1\AppData\Local\Temp\ccuC9E63.s 			page 33


 156:App/WS2812B/ws2812b.cpp ****         for (uint16_t ledIterate = 0; ledIterate < _ledsCount; ledIterate++)
 1387              		.loc 1 156 44 is_stmt 0 view .LVU333
 1388 0082 0421     		movs	r1, #4
 1389 0084 2846     		mov	r0, r5
 1390 0086 FFF7FEFF 		bl	calloc
 1391              	.LVL163:
 156:App/WS2812B/ws2812b.cpp ****         for (uint16_t ledIterate = 0; ledIterate < _ledsCount; ledIterate++)
 1392              		.loc 1 156 24 view .LVU334
 1393 008a 2062     		str	r0, [r4, #32]
 157:App/WS2812B/ws2812b.cpp ****         {
 1394              		.loc 1 157 9 is_stmt 1 view .LVU335
 1395              	.LVL164:
 1396              	.LBB15:
 157:App/WS2812B/ws2812b.cpp ****         {
 1397              		.loc 1 157 23 is_stmt 0 view .LVU336
 1398 008c 0025     		movs	r5, #0
 157:App/WS2812B/ws2812b.cpp ****         {
 1399              		.loc 1 157 9 view .LVU337
 1400 008e 64E0     		b	.L60
 1401              	.LVL165:
 1402              	.L61:
 159:App/WS2812B/ws2812b.cpp ****             _transGreen[ledIterate] = (float)WS2812B::extractGreen(_targetColorData[ledIterate]) - 
 1403              		.loc 1 159 13 is_stmt 1 discriminator 3 view .LVU338
 159:App/WS2812B/ws2812b.cpp ****             _transGreen[ledIterate] = (float)WS2812B::extractGreen(_targetColorData[ledIterate]) - 
 1404              		.loc 1 159 64 is_stmt 0 discriminator 3 view .LVU339
 1405 0090 E369     		ldr	r3, [r4, #28]
 159:App/WS2812B/ws2812b.cpp ****             _transGreen[ledIterate] = (float)WS2812B::extractGreen(_targetColorData[ledIterate]) - 
 1406              		.loc 1 159 63 discriminator 3 view .LVU340
 1407 0092 53F82510 		ldr	r1, [r3, r5, lsl #2]
 1408 0096 2046     		mov	r0, r4
 1409 0098 FFF7FEFF 		bl	_ZN7WS2812B10extractRedEm
 1410              	.LVL166:
 159:App/WS2812B/ws2812b.cpp ****             _transGreen[ledIterate] = (float)WS2812B::extractGreen(_targetColorData[ledIterate]) - 
 1411              		.loc 1 159 37 discriminator 3 view .LVU341
 1412 009c FFF7FEFF 		bl	__aeabi_ui2f
 1413              	.LVL167:
 1414 00a0 0746     		mov	r7, r0
 159:App/WS2812B/ws2812b.cpp ****             _transGreen[ledIterate] = (float)WS2812B::extractGreen(_targetColorData[ledIterate]) - 
 1415              		.loc 1 159 123 discriminator 3 view .LVU342
 1416 00a2 A369     		ldr	r3, [r4, #24]
 159:App/WS2812B/ws2812b.cpp ****             _transGreen[ledIterate] = (float)WS2812B::extractGreen(_targetColorData[ledIterate]) - 
 1417              		.loc 1 159 122 discriminator 3 view .LVU343
 1418 00a4 53F82510 		ldr	r1, [r3, r5, lsl #2]
 1419 00a8 2046     		mov	r0, r4
 1420 00aa FFF7FEFF 		bl	_ZN7WS2812B10extractRedEm
 1421              	.LVL168:
 159:App/WS2812B/ws2812b.cpp ****             _transGreen[ledIterate] = (float)WS2812B::extractGreen(_targetColorData[ledIterate]) - 
 1422              		.loc 1 159 96 discriminator 3 view .LVU344
 1423 00ae FFF7FEFF 		bl	__aeabi_ui2f
 1424              	.LVL169:
 1425 00b2 0146     		mov	r1, r0
 159:App/WS2812B/ws2812b.cpp ****             _transGreen[ledIterate] = (float)WS2812B::extractGreen(_targetColorData[ledIterate]) - 
 1426              		.loc 1 159 13 discriminator 3 view .LVU345
 1427 00b4 D4F82480 		ldr	r8, [r4, #36]
 159:App/WS2812B/ws2812b.cpp ****             _transGreen[ledIterate] = (float)WS2812B::extractGreen(_targetColorData[ledIterate]) - 
 1428              		.loc 1 159 94 discriminator 3 view .LVU346
 1429 00b8 3846     		mov	r0, r7
ARM GAS  C:\Users\DARSTE~1\AppData\Local\Temp\ccuC9E63.s 			page 34


 1430 00ba FFF7FEFF 		bl	__aeabi_fsub
 1431              	.LVL170:
 159:App/WS2812B/ws2812b.cpp ****             _transGreen[ledIterate] = (float)WS2812B::extractGreen(_targetColorData[ledIterate]) - 
 1432              		.loc 1 159 35 discriminator 3 view .LVU347
 1433 00be 48F82500 		str	r0, [r8, r5, lsl #2]	@ float
 160:App/WS2812B/ws2812b.cpp ****             _transBlue[ledIterate] = (float)WS2812B::extractBlue(_targetColorData[ledIterate]) - (f
 1434              		.loc 1 160 13 is_stmt 1 discriminator 3 view .LVU348
 160:App/WS2812B/ws2812b.cpp ****             _transBlue[ledIterate] = (float)WS2812B::extractBlue(_targetColorData[ledIterate]) - (f
 1435              		.loc 1 160 68 is_stmt 0 discriminator 3 view .LVU349
 1436 00c2 E369     		ldr	r3, [r4, #28]
 160:App/WS2812B/ws2812b.cpp ****             _transBlue[ledIterate] = (float)WS2812B::extractBlue(_targetColorData[ledIterate]) - (f
 1437              		.loc 1 160 67 discriminator 3 view .LVU350
 1438 00c4 53F82510 		ldr	r1, [r3, r5, lsl #2]
 1439 00c8 2046     		mov	r0, r4
 1440 00ca FFF7FEFF 		bl	_ZN7WS2812B12extractGreenEm
 1441              	.LVL171:
 160:App/WS2812B/ws2812b.cpp ****             _transBlue[ledIterate] = (float)WS2812B::extractBlue(_targetColorData[ledIterate]) - (f
 1442              		.loc 1 160 39 discriminator 3 view .LVU351
 1443 00ce FFF7FEFF 		bl	__aeabi_ui2f
 1444              	.LVL172:
 1445 00d2 0746     		mov	r7, r0
 160:App/WS2812B/ws2812b.cpp ****             _transBlue[ledIterate] = (float)WS2812B::extractBlue(_targetColorData[ledIterate]) - (f
 1446              		.loc 1 160 129 discriminator 3 view .LVU352
 1447 00d4 A369     		ldr	r3, [r4, #24]
 160:App/WS2812B/ws2812b.cpp ****             _transBlue[ledIterate] = (float)WS2812B::extractBlue(_targetColorData[ledIterate]) - (f
 1448              		.loc 1 160 128 discriminator 3 view .LVU353
 1449 00d6 53F82510 		ldr	r1, [r3, r5, lsl #2]
 1450 00da 2046     		mov	r0, r4
 1451 00dc FFF7FEFF 		bl	_ZN7WS2812B12extractGreenEm
 1452              	.LVL173:
 160:App/WS2812B/ws2812b.cpp ****             _transBlue[ledIterate] = (float)WS2812B::extractBlue(_targetColorData[ledIterate]) - (f
 1453              		.loc 1 160 100 discriminator 3 view .LVU354
 1454 00e0 FFF7FEFF 		bl	__aeabi_ui2f
 1455              	.LVL174:
 1456 00e4 0146     		mov	r1, r0
 160:App/WS2812B/ws2812b.cpp ****             _transBlue[ledIterate] = (float)WS2812B::extractBlue(_targetColorData[ledIterate]) - (f
 1457              		.loc 1 160 13 discriminator 3 view .LVU355
 1458 00e6 D4F82880 		ldr	r8, [r4, #40]
 160:App/WS2812B/ws2812b.cpp ****             _transBlue[ledIterate] = (float)WS2812B::extractBlue(_targetColorData[ledIterate]) - (f
 1459              		.loc 1 160 98 discriminator 3 view .LVU356
 1460 00ea 3846     		mov	r0, r7
 1461 00ec FFF7FEFF 		bl	__aeabi_fsub
 1462              	.LVL175:
 160:App/WS2812B/ws2812b.cpp ****             _transBlue[ledIterate] = (float)WS2812B::extractBlue(_targetColorData[ledIterate]) - (f
 1463              		.loc 1 160 37 discriminator 3 view .LVU357
 1464 00f0 48F82500 		str	r0, [r8, r5, lsl #2]	@ float
 161:App/WS2812B/ws2812b.cpp ****             _transRed[ledIterate] = _transRed[ledIterate] / duration;
 1465              		.loc 1 161 13 is_stmt 1 discriminator 3 view .LVU358
 161:App/WS2812B/ws2812b.cpp ****             _transRed[ledIterate] = _transRed[ledIterate] / duration;
 1466              		.loc 1 161 66 is_stmt 0 discriminator 3 view .LVU359
 1467 00f4 E369     		ldr	r3, [r4, #28]
 161:App/WS2812B/ws2812b.cpp ****             _transRed[ledIterate] = _transRed[ledIterate] / duration;
 1468              		.loc 1 161 65 discriminator 3 view .LVU360
 1469 00f6 53F82510 		ldr	r1, [r3, r5, lsl #2]
 1470 00fa 2046     		mov	r0, r4
 1471 00fc FFF7FEFF 		bl	_ZN7WS2812B11extractBlueEm
 1472              	.LVL176:
ARM GAS  C:\Users\DARSTE~1\AppData\Local\Temp\ccuC9E63.s 			page 35


 161:App/WS2812B/ws2812b.cpp ****             _transRed[ledIterate] = _transRed[ledIterate] / duration;
 1473              		.loc 1 161 38 discriminator 3 view .LVU361
 1474 0100 FFF7FEFF 		bl	__aeabi_ui2f
 1475              	.LVL177:
 1476 0104 0746     		mov	r7, r0
 161:App/WS2812B/ws2812b.cpp ****             _transRed[ledIterate] = _transRed[ledIterate] / duration;
 1477              		.loc 1 161 126 discriminator 3 view .LVU362
 1478 0106 A369     		ldr	r3, [r4, #24]
 161:App/WS2812B/ws2812b.cpp ****             _transRed[ledIterate] = _transRed[ledIterate] / duration;
 1479              		.loc 1 161 125 discriminator 3 view .LVU363
 1480 0108 53F82510 		ldr	r1, [r3, r5, lsl #2]
 1481 010c 2046     		mov	r0, r4
 1482 010e FFF7FEFF 		bl	_ZN7WS2812B11extractBlueEm
 1483              	.LVL178:
 161:App/WS2812B/ws2812b.cpp ****             _transRed[ledIterate] = _transRed[ledIterate] / duration;
 1484              		.loc 1 161 98 discriminator 3 view .LVU364
 1485 0112 FFF7FEFF 		bl	__aeabi_ui2f
 1486              	.LVL179:
 1487 0116 0146     		mov	r1, r0
 161:App/WS2812B/ws2812b.cpp ****             _transRed[ledIterate] = _transRed[ledIterate] / duration;
 1488              		.loc 1 161 13 discriminator 3 view .LVU365
 1489 0118 D4F82C80 		ldr	r8, [r4, #44]
 161:App/WS2812B/ws2812b.cpp ****             _transRed[ledIterate] = _transRed[ledIterate] / duration;
 1490              		.loc 1 161 96 discriminator 3 view .LVU366
 1491 011c 3846     		mov	r0, r7
 1492 011e FFF7FEFF 		bl	__aeabi_fsub
 1493              	.LVL180:
 161:App/WS2812B/ws2812b.cpp ****             _transRed[ledIterate] = _transRed[ledIterate] / duration;
 1494              		.loc 1 161 36 discriminator 3 view .LVU367
 1495 0122 48F82500 		str	r0, [r8, r5, lsl #2]	@ float
 162:App/WS2812B/ws2812b.cpp ****             _transGreen[ledIterate] = _transGreen[ledIterate] / duration;
 1496              		.loc 1 162 13 is_stmt 1 discriminator 3 view .LVU368
 162:App/WS2812B/ws2812b.cpp ****             _transGreen[ledIterate] = _transGreen[ledIterate] / duration;
 1497              		.loc 1 162 37 is_stmt 0 discriminator 3 view .LVU369
 1498 0126 676A     		ldr	r7, [r4, #36]
 162:App/WS2812B/ws2812b.cpp ****             _transGreen[ledIterate] = _transGreen[ledIterate] / duration;
 1499              		.loc 1 162 59 discriminator 3 view .LVU370
 1500 0128 3146     		mov	r1, r6
 1501 012a 57F82500 		ldr	r0, [r7, r5, lsl #2]	@ float
 1502 012e FFF7FEFF 		bl	__aeabi_fdiv
 1503              	.LVL181:
 162:App/WS2812B/ws2812b.cpp ****             _transGreen[ledIterate] = _transGreen[ledIterate] / duration;
 1504              		.loc 1 162 35 discriminator 3 view .LVU371
 1505 0132 47F82500 		str	r0, [r7, r5, lsl #2]	@ float
 163:App/WS2812B/ws2812b.cpp ****             _transBlue[ledIterate] = _transBlue[ledIterate] / duration;
 1506              		.loc 1 163 13 is_stmt 1 discriminator 3 view .LVU372
 163:App/WS2812B/ws2812b.cpp ****             _transBlue[ledIterate] = _transBlue[ledIterate] / duration;
 1507              		.loc 1 163 39 is_stmt 0 discriminator 3 view .LVU373
 1508 0136 A76A     		ldr	r7, [r4, #40]
 163:App/WS2812B/ws2812b.cpp ****             _transBlue[ledIterate] = _transBlue[ledIterate] / duration;
 1509              		.loc 1 163 63 discriminator 3 view .LVU374
 1510 0138 3146     		mov	r1, r6
 1511 013a 57F82500 		ldr	r0, [r7, r5, lsl #2]	@ float
 1512 013e FFF7FEFF 		bl	__aeabi_fdiv
 1513              	.LVL182:
 163:App/WS2812B/ws2812b.cpp ****             _transBlue[ledIterate] = _transBlue[ledIterate] / duration;
 1514              		.loc 1 163 37 discriminator 3 view .LVU375
ARM GAS  C:\Users\DARSTE~1\AppData\Local\Temp\ccuC9E63.s 			page 36


 1515 0142 47F82500 		str	r0, [r7, r5, lsl #2]	@ float
 164:App/WS2812B/ws2812b.cpp ****         }
 1516              		.loc 1 164 13 is_stmt 1 discriminator 3 view .LVU376
 164:App/WS2812B/ws2812b.cpp ****         }
 1517              		.loc 1 164 38 is_stmt 0 discriminator 3 view .LVU377
 1518 0146 E76A     		ldr	r7, [r4, #44]
 164:App/WS2812B/ws2812b.cpp ****         }
 1519              		.loc 1 164 61 discriminator 3 view .LVU378
 1520 0148 3146     		mov	r1, r6
 1521 014a 57F82500 		ldr	r0, [r7, r5, lsl #2]	@ float
 1522 014e FFF7FEFF 		bl	__aeabi_fdiv
 1523              	.LVL183:
 164:App/WS2812B/ws2812b.cpp ****         }
 1524              		.loc 1 164 36 discriminator 3 view .LVU379
 1525 0152 47F82500 		str	r0, [r7, r5, lsl #2]	@ float
 157:App/WS2812B/ws2812b.cpp ****         {
 1526              		.loc 1 157 9 is_stmt 1 discriminator 3 view .LVU380
 1527 0156 0135     		adds	r5, r5, #1
 1528              	.LVL184:
 157:App/WS2812B/ws2812b.cpp ****         {
 1529              		.loc 1 157 9 is_stmt 0 discriminator 3 view .LVU381
 1530 0158 ADB2     		uxth	r5, r5
 1531              	.LVL185:
 1532              	.L60:
 157:App/WS2812B/ws2812b.cpp ****         {
 1533              		.loc 1 157 50 is_stmt 1 discriminator 1 view .LVU382
 157:App/WS2812B/ws2812b.cpp ****         {
 1534              		.loc 1 157 52 is_stmt 0 discriminator 1 view .LVU383
 1535 015a 2389     		ldrh	r3, [r4, #8]
 157:App/WS2812B/ws2812b.cpp ****         {
 1536              		.loc 1 157 50 discriminator 1 view .LVU384
 1537 015c AB42     		cmp	r3, r5
 1538 015e 97D8     		bhi	.L61
 1539              	.LBE15:
 1540              	.LBB16:
 166:App/WS2812B/ws2812b.cpp ****             _prevColorData[ledIterate] = _colorData[ledIterate];
 1541              		.loc 1 166 23 view .LVU385
 1542 0160 0023     		movs	r3, #0
 1543 0162 07E0     		b	.L62
 1544              	.LVL186:
 1545              	.L63:
 167:App/WS2812B/ws2812b.cpp ****     }
 1546              		.loc 1 167 13 is_stmt 1 discriminator 3 view .LVU386
 167:App/WS2812B/ws2812b.cpp ****     }
 1547              		.loc 1 167 42 is_stmt 0 discriminator 3 view .LVU387
 1548 0164 A169     		ldr	r1, [r4, #24]
 167:App/WS2812B/ws2812b.cpp ****     }
 1549              		.loc 1 167 13 discriminator 3 view .LVU388
 1550 0166 226A     		ldr	r2, [r4, #32]
 167:App/WS2812B/ws2812b.cpp ****     }
 1551              		.loc 1 167 63 discriminator 3 view .LVU389
 1552 0168 51F82310 		ldr	r1, [r1, r3, lsl #2]
 167:App/WS2812B/ws2812b.cpp ****     }
 1553              		.loc 1 167 40 discriminator 3 view .LVU390
 1554 016c 42F82310 		str	r1, [r2, r3, lsl #2]
 166:App/WS2812B/ws2812b.cpp ****             _prevColorData[ledIterate] = _colorData[ledIterate];
 1555              		.loc 1 166 9 is_stmt 1 discriminator 3 view .LVU391
ARM GAS  C:\Users\DARSTE~1\AppData\Local\Temp\ccuC9E63.s 			page 37


 1556 0170 0133     		adds	r3, r3, #1
 1557              	.LVL187:
 166:App/WS2812B/ws2812b.cpp ****             _prevColorData[ledIterate] = _colorData[ledIterate];
 1558              		.loc 1 166 9 is_stmt 0 discriminator 3 view .LVU392
 1559 0172 9BB2     		uxth	r3, r3
 1560              	.LVL188:
 1561              	.L62:
 166:App/WS2812B/ws2812b.cpp ****             _prevColorData[ledIterate] = _colorData[ledIterate];
 1562              		.loc 1 166 50 is_stmt 1 discriminator 1 view .LVU393
 166:App/WS2812B/ws2812b.cpp ****             _prevColorData[ledIterate] = _colorData[ledIterate];
 1563              		.loc 1 166 52 is_stmt 0 discriminator 1 view .LVU394
 1564 0174 2289     		ldrh	r2, [r4, #8]
 166:App/WS2812B/ws2812b.cpp ****             _prevColorData[ledIterate] = _colorData[ledIterate];
 1565              		.loc 1 166 50 discriminator 1 view .LVU395
 1566 0176 9A42     		cmp	r2, r3
 1567 0178 F4D8     		bhi	.L63
 1568 017a 58E7     		b	.L58
 1569              	.LVL189:
 1570              	.L65:
 166:App/WS2812B/ws2812b.cpp ****             _prevColorData[ledIterate] = _colorData[ledIterate];
 1571              		.loc 1 166 50 discriminator 1 view .LVU396
 1572              	.LBE16:
 1573              	.LBE17:
 1574              	.LBE18:
 1575              	.LBB19:
 171:App/WS2812B/ws2812b.cpp ****             WS2812B::extractRed(_prevColorData[ledIterate]) + *timeTick * _transRed[ledIterate],
 1576              		.loc 1 171 9 is_stmt 1 discriminator 3 view .LVU397
 172:App/WS2812B/ws2812b.cpp ****             WS2812B::extractGreen(_prevColorData[ledIterate]) + *timeTick * _transGreen[ledIterate]
 1577              		.loc 1 172 33 is_stmt 0 discriminator 3 view .LVU398
 1578 017c 236A     		ldr	r3, [r4, #32]
 172:App/WS2812B/ws2812b.cpp ****             WS2812B::extractGreen(_prevColorData[ledIterate]) + *timeTick * _transGreen[ledIterate]
 1579              		.loc 1 172 32 discriminator 3 view .LVU399
 1580 017e 53F825A0 		ldr	r10, [r3, r5, lsl #2]
 1581 0182 5146     		mov	r1, r10
 1582 0184 2046     		mov	r0, r4
 1583 0186 FFF7FEFF 		bl	_ZN7WS2812B10extractRedEm
 1584              	.LVL190:
 1585 018a 8046     		mov	r8, r0
 172:App/WS2812B/ws2812b.cpp ****             WS2812B::extractGreen(_prevColorData[ledIterate]) + *timeTick * _transGreen[ledIterate]
 1586              		.loc 1 172 63 discriminator 3 view .LVU400
 1587 018c D9F80070 		ldr	r7, [r9]	@ float
 172:App/WS2812B/ws2812b.cpp ****             WS2812B::extractGreen(_prevColorData[ledIterate]) + *timeTick * _transGreen[ledIterate]
 1588              		.loc 1 172 75 discriminator 3 view .LVU401
 1589 0190 636A     		ldr	r3, [r4, #36]
 172:App/WS2812B/ws2812b.cpp ****             WS2812B::extractGreen(_prevColorData[ledIterate]) + *timeTick * _transGreen[ledIterate]
 1590              		.loc 1 172 73 discriminator 3 view .LVU402
 1591 0192 53F82510 		ldr	r1, [r3, r5, lsl #2]	@ float
 1592 0196 3846     		mov	r0, r7
 1593 0198 FFF7FEFF 		bl	__aeabi_fmul
 1594              	.LVL191:
 1595 019c 0646     		mov	r6, r0
 172:App/WS2812B/ws2812b.cpp ****             WS2812B::extractGreen(_prevColorData[ledIterate]) + *timeTick * _transGreen[ledIterate]
 1596              		.loc 1 172 61 discriminator 3 view .LVU403
 1597 019e 4046     		mov	r0, r8
 1598 01a0 FFF7FEFF 		bl	__aeabi_i2f
 1599              	.LVL192:
 1600 01a4 3146     		mov	r1, r6
ARM GAS  C:\Users\DARSTE~1\AppData\Local\Temp\ccuC9E63.s 			page 38


 1601 01a6 FFF7FEFF 		bl	__aeabi_fadd
 1602              	.LVL193:
 1603 01aa 8046     		mov	r8, r0
 173:App/WS2812B/ws2812b.cpp ****             WS2812B::extractBlue(_prevColorData[ledIterate]) + *timeTick * _transBlue[ledIterate]
 1604              		.loc 1 173 34 discriminator 3 view .LVU404
 1605 01ac 5146     		mov	r1, r10
 1606 01ae 2046     		mov	r0, r4
 1607 01b0 FFF7FEFF 		bl	_ZN7WS2812B12extractGreenEm
 1608              	.LVL194:
 1609 01b4 8346     		mov	fp, r0
 173:App/WS2812B/ws2812b.cpp ****             WS2812B::extractBlue(_prevColorData[ledIterate]) + *timeTick * _transBlue[ledIterate]
 1610              		.loc 1 173 77 discriminator 3 view .LVU405
 1611 01b6 A36A     		ldr	r3, [r4, #40]
 173:App/WS2812B/ws2812b.cpp ****             WS2812B::extractBlue(_prevColorData[ledIterate]) + *timeTick * _transBlue[ledIterate]
 1612              		.loc 1 173 75 discriminator 3 view .LVU406
 1613 01b8 53F82510 		ldr	r1, [r3, r5, lsl #2]	@ float
 1614 01bc 3846     		mov	r0, r7
 1615 01be FFF7FEFF 		bl	__aeabi_fmul
 1616              	.LVL195:
 1617 01c2 0646     		mov	r6, r0
 173:App/WS2812B/ws2812b.cpp ****             WS2812B::extractBlue(_prevColorData[ledIterate]) + *timeTick * _transBlue[ledIterate]
 1618              		.loc 1 173 63 discriminator 3 view .LVU407
 1619 01c4 5846     		mov	r0, fp
 1620 01c6 FFF7FEFF 		bl	__aeabi_i2f
 1621              	.LVL196:
 1622 01ca 3146     		mov	r1, r6
 1623 01cc FFF7FEFF 		bl	__aeabi_fadd
 1624              	.LVL197:
 1625 01d0 0646     		mov	r6, r0
 174:App/WS2812B/ws2812b.cpp ****         );
 1626              		.loc 1 174 33 discriminator 3 view .LVU408
 1627 01d2 5146     		mov	r1, r10
 1628 01d4 2046     		mov	r0, r4
 1629 01d6 FFF7FEFF 		bl	_ZN7WS2812B11extractBlueEm
 1630              	.LVL198:
 1631 01da 8246     		mov	r10, r0
 174:App/WS2812B/ws2812b.cpp ****         );
 1632              		.loc 1 174 76 discriminator 3 view .LVU409
 1633 01dc E36A     		ldr	r3, [r4, #44]
 174:App/WS2812B/ws2812b.cpp ****         );
 1634              		.loc 1 174 74 discriminator 3 view .LVU410
 1635 01de 53F82510 		ldr	r1, [r3, r5, lsl #2]	@ float
 1636 01e2 3846     		mov	r0, r7
 1637 01e4 FFF7FEFF 		bl	__aeabi_fmul
 1638              	.LVL199:
 1639 01e8 0746     		mov	r7, r0
 174:App/WS2812B/ws2812b.cpp ****         );
 1640              		.loc 1 174 62 discriminator 3 view .LVU411
 1641 01ea 5046     		mov	r0, r10
 1642 01ec FFF7FEFF 		bl	__aeabi_i2f
 1643              	.LVL200:
 1644 01f0 3946     		mov	r1, r7
 1645 01f2 FFF7FEFF 		bl	__aeabi_fadd
 1646              	.LVL201:
 171:App/WS2812B/ws2812b.cpp ****             WS2812B::extractRed(_prevColorData[ledIterate]) + *timeTick * _transRed[ledIterate],
 1647              		.loc 1 171 9 discriminator 3 view .LVU412
 1648 01f6 D4F818A0 		ldr	r10, [r4, #24]
ARM GAS  C:\Users\DARSTE~1\AppData\Local\Temp\ccuC9E63.s 			page 39


 171:App/WS2812B/ws2812b.cpp ****             WS2812B::extractRed(_prevColorData[ledIterate]) + *timeTick * _transRed[ledIterate],
 1649              		.loc 1 171 53 discriminator 3 view .LVU413
 1650 01fa FFF7FEFF 		bl	__aeabi_f2uiz
 1651              	.LVL202:
 1652 01fe C7B2     		uxtb	r7, r0
 1653 0200 3046     		mov	r0, r6
 1654 0202 FFF7FEFF 		bl	__aeabi_f2uiz
 1655              	.LVL203:
 1656 0206 C6B2     		uxtb	r6, r0
 1657 0208 4046     		mov	r0, r8
 1658 020a FFF7FEFF 		bl	__aeabi_f2uiz
 1659              	.LVL204:
 1660 020e 3B46     		mov	r3, r7
 1661 0210 3246     		mov	r2, r6
 1662 0212 C1B2     		uxtb	r1, r0
 1663 0214 2046     		mov	r0, r4
 1664 0216 FFF7FEFF 		bl	_ZN7WS2812B10combineRGBEhhh
 1665              	.LVL205:
 171:App/WS2812B/ws2812b.cpp ****             WS2812B::extractRed(_prevColorData[ledIterate]) + *timeTick * _transRed[ledIterate],
 1666              		.loc 1 171 32 discriminator 3 view .LVU414
 1667 021a 4AF82500 		str	r0, [r10, r5, lsl #2]
 170:App/WS2812B/ws2812b.cpp ****         _colorData[ledIterate] = WS2812B::combineRGB(
 1668              		.loc 1 170 5 is_stmt 1 discriminator 3 view .LVU415
 1669 021e 0135     		adds	r5, r5, #1
 1670              	.LVL206:
 170:App/WS2812B/ws2812b.cpp ****         _colorData[ledIterate] = WS2812B::combineRGB(
 1671              		.loc 1 170 5 is_stmt 0 discriminator 3 view .LVU416
 1672 0220 ADB2     		uxth	r5, r5
 1673              	.LVL207:
 1674              	.L64:
 170:App/WS2812B/ws2812b.cpp ****         _colorData[ledIterate] = WS2812B::combineRGB(
 1675              		.loc 1 170 46 is_stmt 1 discriminator 1 view .LVU417
 170:App/WS2812B/ws2812b.cpp ****         _colorData[ledIterate] = WS2812B::combineRGB(
 1676              		.loc 1 170 48 is_stmt 0 discriminator 1 view .LVU418
 1677 0222 2389     		ldrh	r3, [r4, #8]
 170:App/WS2812B/ws2812b.cpp ****         _colorData[ledIterate] = WS2812B::combineRGB(
 1678              		.loc 1 170 46 discriminator 1 view .LVU419
 1679 0224 AB42     		cmp	r3, r5
 1680 0226 A9D8     		bhi	.L65
 1681              	.LBE19:
 177:App/WS2812B/ws2812b.cpp **** 
 1682              		.loc 1 177 5 is_stmt 1 view .LVU420
 177:App/WS2812B/ws2812b.cpp **** 
 1683              		.loc 1 177 26 is_stmt 0 view .LVU421
 1684 0228 2046     		mov	r0, r4
 1685 022a FFF7FEFF 		bl	_ZN7WS2812B12updateBufferEv
 1686              	.LVL208:
 179:App/WS2812B/ws2812b.cpp ****         _PWMgenerator, _channel,
 1687              		.loc 1 179 5 is_stmt 1 view .LVU422
 182:App/WS2812B/ws2812b.cpp ****     );
 1688              		.loc 1 182 9 is_stmt 0 view .LVU423
 1689 022e 2389     		ldrh	r3, [r4, #8]
 182:App/WS2812B/ws2812b.cpp ****     );
 1690              		.loc 1 182 22 view .LVU424
 1691 0230 94F83420 		ldrb	r2, [r4, #52]	@ zero_extendqisi2
 179:App/WS2812B/ws2812b.cpp ****         _PWMgenerator, _channel,
 1692              		.loc 1 179 26 view .LVU425
ARM GAS  C:\Users\DARSTE~1\AppData\Local\Temp\ccuC9E63.s 			page 40


 1693 0234 02FB03F3 		mul	r3, r2, r3
 1694 0238 9BB2     		uxth	r3, r3
 1695 023a 226B     		ldr	r2, [r4, #48]
 1696 023c E168     		ldr	r1, [r4, #12]
 1697 023e 6068     		ldr	r0, [r4, #4]
 1698 0240 FFF7FEFF 		bl	HAL_TIM_PWM_Start_DMA
 1699              	.LVL209:
 185:App/WS2812B/ws2812b.cpp ****     while (UPDATE_STATE == WS2812B_UPDATE_ONGOING);
 1700              		.loc 1 185 5 is_stmt 1 view .LVU426
 185:App/WS2812B/ws2812b.cpp ****     while (UPDATE_STATE == WS2812B_UPDATE_ONGOING);
 1701              		.loc 1 185 18 is_stmt 0 view .LVU427
 1702 0244 0023     		movs	r3, #0
 1703 0246 2370     		strb	r3, [r4]
 186:App/WS2812B/ws2812b.cpp **** 
 1704              		.loc 1 186 5 is_stmt 1 view .LVU428
 1705              	.L66:
 186:App/WS2812B/ws2812b.cpp **** 
 1706              		.loc 1 186 25 discriminator 1 view .LVU429
 186:App/WS2812B/ws2812b.cpp **** 
 1707              		.loc 1 186 12 is_stmt 0 discriminator 1 view .LVU430
 1708 0248 2378     		ldrb	r3, [r4]	@ zero_extendqisi2
 186:App/WS2812B/ws2812b.cpp **** 
 1709              		.loc 1 186 25 discriminator 1 view .LVU431
 1710 024a 002B     		cmp	r3, #0
 1711 024c FCD0     		beq	.L66
 188:App/WS2812B/ws2812b.cpp **** }
 1712              		.loc 1 188 27 view .LVU432
 1713 024e 0020     		movs	r0, #0
 1714              	.LVL210:
 1715              	.L57:
 189:App/WS2812B/ws2812b.cpp **** 
 1716              		.loc 1 189 1 view .LVU433
 1717 0250 BDE8F88F 		pop	{r3, r4, r5, r6, r7, r8, r9, r10, fp, pc}
 1718              	.LVL211:
 1719              	.L67:
 148:App/WS2812B/ws2812b.cpp **** 
 1720              		.loc 1 148 16 view .LVU434
 1721 0254 0120     		movs	r0, #1
 1722 0256 FBE7     		b	.L57
 1723              	.L75:
 1724              		.align	2
 1725              	.L74:
 1726 0258 00007A44 		.word	1148846080
 1727              		.cfi_endproc
 1728              	.LFE82:
 1729              		.fnend
 1731              		.section	.text._ZN7WS2812B11clearBufferEv,"ax",%progbits
 1732              		.align	1
 1733              		.global	_ZN7WS2812B11clearBufferEv
 1734              		.syntax unified
 1735              		.thumb
 1736              		.thumb_func
 1738              	_ZN7WS2812B11clearBufferEv:
 1739              		.fnstart
 1740              	.LVL212:
 1741              	.LFB91:
 233:App/WS2812B/ws2812b.cpp **** 
ARM GAS  C:\Users\DARSTE~1\AppData\Local\Temp\ccuC9E63.s 			page 41


 234:App/WS2812B/ws2812b.cpp **** void WS2812B::clearBuffer()
 235:App/WS2812B/ws2812b.cpp **** {
 1742              		.loc 1 235 1 is_stmt 1 view -0
 1743              		.cfi_startproc
 1744              		@ args = 0, pretend = 0, frame = 0
 1745              		@ frame_needed = 0, uses_anonymous_args = 0
 1746              		@ link register save eliminated.
 236:App/WS2812B/ws2812b.cpp ****     for (uint32_t bufferIndex = 0;
 1747              		.loc 1 236 5 view .LVU436
 1748              	.LBB20:
 1749              		.loc 1 236 19 is_stmt 0 view .LVU437
 1750 0000 0022     		movs	r2, #0
 1751              		.loc 1 236 5 view .LVU438
 1752 0002 04E0     		b	.L77
 1753              	.LVL213:
 1754              	.L78:
 237:App/WS2812B/ws2812b.cpp ****         bufferIndex < _ledsCount * 24 + WS2812B_RESET_CODE_PADDING;
 238:App/WS2812B/ws2812b.cpp ****         bufferIndex++)
 239:App/WS2812B/ws2812b.cpp ****     { _buffer[bufferIndex] = 0; }
 1755              		.loc 1 239 7 is_stmt 1 view .LVU439
 1756 0004 036B     		ldr	r3, [r0, #48]
 1757              		.loc 1 239 28 is_stmt 0 view .LVU440
 1758 0006 0021     		movs	r1, #0
 1759 0008 43F82210 		str	r1, [r3, r2, lsl #2]
 236:App/WS2812B/ws2812b.cpp ****     for (uint32_t bufferIndex = 0;
 1760              		.loc 1 236 5 is_stmt 1 view .LVU441
 1761 000c 0132     		adds	r2, r2, #1
 1762              	.LVL214:
 1763              	.L77:
 237:App/WS2812B/ws2812b.cpp ****         bufferIndex < _ledsCount * 24 + WS2812B_RESET_CODE_PADDING;
 1764              		.loc 1 237 21 view .LVU442
 237:App/WS2812B/ws2812b.cpp ****         bufferIndex < _ledsCount * 24 + WS2812B_RESET_CODE_PADDING;
 1765              		.loc 1 237 23 is_stmt 0 view .LVU443
 1766 000e 0389     		ldrh	r3, [r0, #8]
 237:App/WS2812B/ws2812b.cpp ****         bufferIndex < _ledsCount * 24 + WS2812B_RESET_CODE_PADDING;
 1767              		.loc 1 237 34 view .LVU444
 1768 0010 03EB4303 		add	r3, r3, r3, lsl #1
 1769 0014 DB00     		lsls	r3, r3, #3
 237:App/WS2812B/ws2812b.cpp ****         bufferIndex < _ledsCount * 24 + WS2812B_RESET_CODE_PADDING;
 1770              		.loc 1 237 39 view .LVU445
 1771 0016 2833     		adds	r3, r3, #40
 237:App/WS2812B/ws2812b.cpp ****         bufferIndex < _ledsCount * 24 + WS2812B_RESET_CODE_PADDING;
 1772              		.loc 1 237 21 view .LVU446
 1773 0018 9342     		cmp	r3, r2
 1774 001a F3D8     		bhi	.L78
 1775              	.LBE20:
 240:App/WS2812B/ws2812b.cpp **** }...
 1776              		.loc 1 240 1 view .LVU447
 1777 001c 7047     		bx	lr
 1778              		.cfi_endproc
 1779              	.LFE91:
 1780              		.cantunwind
 1781              		.fnend
 1783              		.text
 1784              	.Letext0:
 1785              		.file 2 "c:\\msys64\\mingw64\\arm-none-eabi\\include\\machine\\_default_types.h"
 1786              		.file 3 "c:\\msys64\\mingw64\\arm-none-eabi\\include\\sys\\_stdint.h"
ARM GAS  C:\Users\DARSTE~1\AppData\Local\Temp\ccuC9E63.s 			page 42


 1787              		.file 4 "Drivers/CMSIS/Device/ST/STM32F1xx/Include/stm32f103xb.h"
 1788              		.file 5 "c:\\msys64\\mingw64\\lib\\gcc\\arm-none-eabi\\12.2.0\\include\\stddef.h"
 1789              		.file 6 "Drivers/STM32F1xx_HAL_Driver/Inc/stm32f1xx_hal_def.h"
 1790              		.file 7 "Drivers/STM32F1xx_HAL_Driver/Inc/stm32f1xx_hal_dma.h"
 1791              		.file 8 "Drivers/STM32F1xx_HAL_Driver/Inc/stm32f1xx_hal_tim.h"
 1792              		.file 9 "App/WS2812B/ws2812b.h"
 1793              		.file 10 "c:\\msys64\\mingw64\\arm-none-eabi\\include\\c++\\12.2.0\\cstdlib"
 1794              		.file 11 "c:\\msys64\\mingw64\\arm-none-eabi\\include\\c++\\12.2.0\\bits\\std_abs.h"
 1795              		.file 12 "c:\\msys64\\mingw64\\arm-none-eabi\\include\\c++\\12.2.0\\arm-none-eabi\\thumb\\v7-m\\no
 1796              		.file 13 "c:\\msys64\\mingw64\\arm-none-eabi\\include\\stdlib.h"
 1797              		.file 14 "c:\\msys64\\mingw64\\arm-none-eabi\\include\\c++\\12.2.0\\stdlib.h"
 1798              		.file 15 "c:\\msys64\\mingw64\\arm-none-eabi\\include\\string.h"
ARM GAS  C:\Users\DARSTE~1\AppData\Local\Temp\ccuC9E63.s 			page 43

